
main:     file format elf64-littleriscv


Disassembly of section .text:

ffffffc050400000 <_start>:
ffffffc050400000:	10401073          	csrw	sie,zero
ffffffc050400004:	14401073          	csrw	sip,zero
ffffffc050400008:	6299                	lui	t0,0x6
ffffffc05040000a:	1002b073          	csrc	sstatus,t0
ffffffc05040000e:	00024197          	auipc	gp,0x24
ffffffc050400012:	4aa18193          	addi	gp,gp,1194 # ffffffc0504244b8 <__global_pointer$>
ffffffc050400016:	82418693          	addi	a3,gp,-2012 # ffffffc050423cdc <_edata>
ffffffc05040001a:	00028717          	auipc	a4,0x28
ffffffc05040001e:	32e70713          	addi	a4,a4,814 # ffffffc050428348 <__BSS_END__>
ffffffc050400022:	00e6d763          	bge	a3,a4,ffffffc050400030 <clear_bss_done>

ffffffc050400026 <clear_bss>:
ffffffc050400026:	0006b023          	sd	zero,0(a3)
ffffffc05040002a:	06a1                	addi	a3,a3,8
ffffffc05040002c:	fee6cde3          	blt	a3,a4,ffffffc050400026 <clear_bss>

ffffffc050400030 <clear_bss_done>:
ffffffc050400030:	00005217          	auipc	tp,0x5
ffffffc050400034:	a0020213          	addi	tp,tp,-1536 # ffffffc050404a30 <pid0_pcb>
ffffffc050400038:	00024117          	auipc	sp,0x24
ffffffc05040003c:	c8013103          	ld	sp,-896(sp) # ffffffc050423cb8 <pid0_stack>
ffffffc050400040:	14001073          	csrw	sscratch,zero
ffffffc050400044:	00026517          	auipc	a0,0x26
ffffffc050400048:	44c50513          	addi	a0,a0,1100 # ffffffc050426490 <riscv_dtb>
ffffffc05040004c:	e10c                	sd	a1,0(a0)
ffffffc05040004e:	32b000ef          	jal	ra,ffffffc050400b78 <main>

ffffffc050400052 <loop>:
ffffffc050400052:	10500073          	wfi
ffffffc050400056:	bff5                	j	ffffffc050400052 <loop>
ffffffc050400058:	0000                	unimp
	...

ffffffc05040005c <setup_exception>:
ffffffc05040005c:	00000297          	auipc	t0,0x0
ffffffc050400060:	11028293          	addi	t0,t0,272 # ffffffc05040016c <exception_handler_entry>
ffffffc050400064:	10529073          	csrw	stvec,t0
ffffffc050400068:	4289                	li	t0,2
ffffffc05040006a:	10029073          	csrw	sstatus,t0
ffffffc05040006e:	22200413          	li	s0,546
ffffffc050400072:	10441073          	csrw	sie,s0
ffffffc050400076:	8082                	ret
ffffffc050400078:	0000                	unimp
	...

ffffffc05040007c <enable_preempt>:
ffffffc05040007c:	00026317          	auipc	t1,0x26
ffffffc050400080:	48433303          	ld	t1,1156(t1) # ffffffc050426500 <current_running>
ffffffc050400084:	01033283          	ld	t0,16(t1)
ffffffc050400088:	00028863          	beqz	t0,ffffffc050400098 <do_enable>
ffffffc05040008c:	12fd                	addi	t0,t0,-1
ffffffc05040008e:	00533823          	sd	t0,16(t1)
ffffffc050400092:	00028363          	beqz	t0,ffffffc050400098 <do_enable>
ffffffc050400096:	8082                	ret

ffffffc050400098 <do_enable>:
ffffffc050400098:	fff04293          	not	t0,zero
ffffffc05040009c:	1042a073          	csrs	sie,t0
ffffffc0504000a0:	8082                	ret
ffffffc0504000a2:	0001                	nop

ffffffc0504000a4 <disable_preempt>:
ffffffc0504000a4:	10401073          	csrw	sie,zero
ffffffc0504000a8:	00026317          	auipc	t1,0x26
ffffffc0504000ac:	45833303          	ld	t1,1112(t1) # ffffffc050426500 <current_running>
ffffffc0504000b0:	01033283          	ld	t0,16(t1)
ffffffc0504000b4:	0285                	addi	t0,t0,1
ffffffc0504000b6:	00533823          	sd	t0,16(t1)
ffffffc0504000ba:	8082                	ret

ffffffc0504000bc <enable_interrupt>:
ffffffc0504000bc:	4289                	li	t0,2
ffffffc0504000be:	1002a073          	csrs	sstatus,t0
ffffffc0504000c2:	8082                	ret

ffffffc0504000c4 <disable_interrupt>:
ffffffc0504000c4:	4289                	li	t0,2
ffffffc0504000c6:	1002b073          	csrc	sstatus,t0
ffffffc0504000ca:	8082                	ret

ffffffc0504000cc <switch_to>:
ffffffc0504000cc:	00053283          	ld	t0,0(a0)
ffffffc0504000d0:	0022b423          	sd	sp,8(t0)
ffffffc0504000d4:	00053103          	ld	sp,0(a0)
ffffffc0504000d8:	e006                	sd	ra,0(sp)
ffffffc0504000da:	e822                	sd	s0,16(sp)
ffffffc0504000dc:	ec26                	sd	s1,24(sp)
ffffffc0504000de:	f04a                	sd	s2,32(sp)
ffffffc0504000e0:	f44e                	sd	s3,40(sp)
ffffffc0504000e2:	f852                	sd	s4,48(sp)
ffffffc0504000e4:	fc56                	sd	s5,56(sp)
ffffffc0504000e6:	e0da                	sd	s6,64(sp)
ffffffc0504000e8:	e4de                	sd	s7,72(sp)
ffffffc0504000ea:	e8e2                	sd	s8,80(sp)
ffffffc0504000ec:	ece6                	sd	s9,88(sp)
ffffffc0504000ee:	f0ea                	sd	s10,96(sp)
ffffffc0504000f0:	f4ee                	sd	s11,104(sp)
ffffffc0504000f2:	0005b103          	ld	sp,0(a1)
ffffffc0504000f6:	6082                	ld	ra,0(sp)
ffffffc0504000f8:	6442                	ld	s0,16(sp)
ffffffc0504000fa:	64e2                	ld	s1,24(sp)
ffffffc0504000fc:	7902                	ld	s2,32(sp)
ffffffc0504000fe:	79a2                	ld	s3,40(sp)
ffffffc050400100:	7a42                	ld	s4,48(sp)
ffffffc050400102:	7ae2                	ld	s5,56(sp)
ffffffc050400104:	6b06                	ld	s6,64(sp)
ffffffc050400106:	6ba6                	ld	s7,72(sp)
ffffffc050400108:	6c46                	ld	s8,80(sp)
ffffffc05040010a:	6ce6                	ld	s9,88(sp)
ffffffc05040010c:	7d06                	ld	s10,96(sp)
ffffffc05040010e:	7da6                	ld	s11,104(sp)
ffffffc050400110:	6122                	ld	sp,8(sp)
ffffffc050400112:	00058213          	mv	tp,a1
ffffffc050400116:	8082                	ret

ffffffc050400118 <ret_from_exception>:
ffffffc050400118:	00023103          	ld	sp,0(tp) # 0 <_start-0xffffffc050400000>
ffffffc05040011c:	6165                	addi	sp,sp,112
ffffffc05040011e:	60a2                	ld	ra,8(sp)
ffffffc050400120:	61e2                	ld	gp,24(sp)
ffffffc050400122:	73e2                	ld	t2,56(sp)
ffffffc050400124:	6406                	ld	s0,64(sp)
ffffffc050400126:	64a6                	ld	s1,72(sp)
ffffffc050400128:	6546                	ld	a0,80(sp)
ffffffc05040012a:	65e6                	ld	a1,88(sp)
ffffffc05040012c:	7606                	ld	a2,96(sp)
ffffffc05040012e:	76a6                	ld	a3,104(sp)
ffffffc050400130:	7746                	ld	a4,112(sp)
ffffffc050400132:	77e6                	ld	a5,120(sp)
ffffffc050400134:	680a                	ld	a6,128(sp)
ffffffc050400136:	68aa                	ld	a7,136(sp)
ffffffc050400138:	694a                	ld	s2,144(sp)
ffffffc05040013a:	69ea                	ld	s3,152(sp)
ffffffc05040013c:	7a0a                	ld	s4,160(sp)
ffffffc05040013e:	7aaa                	ld	s5,168(sp)
ffffffc050400140:	7b4a                	ld	s6,176(sp)
ffffffc050400142:	7bea                	ld	s7,184(sp)
ffffffc050400144:	6c0e                	ld	s8,192(sp)
ffffffc050400146:	6cae                	ld	s9,200(sp)
ffffffc050400148:	6d4e                	ld	s10,208(sp)
ffffffc05040014a:	6dee                	ld	s11,216(sp)
ffffffc05040014c:	7e0e                	ld	t3,224(sp)
ffffffc05040014e:	7eae                	ld	t4,232(sp)
ffffffc050400150:	7f4e                	ld	t5,240(sp)
ffffffc050400152:	7fee                	ld	t6,248(sp)
ffffffc050400154:	6292                	ld	t0,256(sp)
ffffffc050400156:	6332                	ld	t1,264(sp)
ffffffc050400158:	10029073          	csrw	sstatus,t0
ffffffc05040015c:	14131073          	csrw	sepc,t1
ffffffc050400160:	72a2                	ld	t0,40(sp)
ffffffc050400162:	7342                	ld	t1,48(sp)
ffffffc050400164:	00823103          	ld	sp,8(tp) # 8 <_start-0xffffffc0503ffff8>
ffffffc050400168:	10200073          	sret

ffffffc05040016c <exception_handler_entry>:
ffffffc05040016c:	00223423          	sd	sp,8(tp) # 8 <_start-0xffffffc0503ffff8>
ffffffc050400170:	00023103          	ld	sp,0(tp) # 0 <_start-0xffffffc050400000>
ffffffc050400174:	6165                	addi	sp,sp,112
ffffffc050400176:	e406                	sd	ra,8(sp)
ffffffc050400178:	ec0e                	sd	gp,24(sp)
ffffffc05040017a:	f81a                	sd	t1,48(sp)
ffffffc05040017c:	fc1e                	sd	t2,56(sp)
ffffffc05040017e:	e0a2                	sd	s0,64(sp)
ffffffc050400180:	e4a6                	sd	s1,72(sp)
ffffffc050400182:	e8aa                	sd	a0,80(sp)
ffffffc050400184:	ecae                	sd	a1,88(sp)
ffffffc050400186:	f0b2                	sd	a2,96(sp)
ffffffc050400188:	f4b6                	sd	a3,104(sp)
ffffffc05040018a:	f8ba                	sd	a4,112(sp)
ffffffc05040018c:	fcbe                	sd	a5,120(sp)
ffffffc05040018e:	e142                	sd	a6,128(sp)
ffffffc050400190:	e546                	sd	a7,136(sp)
ffffffc050400192:	e94a                	sd	s2,144(sp)
ffffffc050400194:	ed4e                	sd	s3,152(sp)
ffffffc050400196:	f152                	sd	s4,160(sp)
ffffffc050400198:	f556                	sd	s5,168(sp)
ffffffc05040019a:	f95a                	sd	s6,176(sp)
ffffffc05040019c:	fd5e                	sd	s7,184(sp)
ffffffc05040019e:	e1e2                	sd	s8,192(sp)
ffffffc0504001a0:	e5e6                	sd	s9,200(sp)
ffffffc0504001a2:	e9ea                	sd	s10,208(sp)
ffffffc0504001a4:	edee                	sd	s11,216(sp)
ffffffc0504001a6:	f1f2                	sd	t3,224(sp)
ffffffc0504001a8:	f5f6                	sd	t4,232(sp)
ffffffc0504001aa:	f9fa                	sd	t5,240(sp)
ffffffc0504001ac:	fdfe                	sd	t6,248(sp)
ffffffc0504001ae:	00823283          	ld	t0,8(tp) # 8 <_start-0xffffffc0503ffff8>
ffffffc0504001b2:	e816                	sd	t0,16(sp)
ffffffc0504001b4:	f416                	sd	t0,40(sp)
ffffffc0504001b6:	000462b7          	lui	t0,0x46
ffffffc0504001ba:	1002b473          	csrrc	s0,sstatus,t0
ffffffc0504001be:	e222                	sd	s0,256(sp)
ffffffc0504001c0:	14302473          	csrr	s0,stval
ffffffc0504001c4:	141024f3          	csrr	s1,sepc
ffffffc0504001c8:	14202973          	csrr	s2,scause
ffffffc0504001cc:	ea22                	sd	s0,272(sp)
ffffffc0504001ce:	e626                	sd	s1,264(sp)
ffffffc0504001d0:	ee4a                	sd	s2,280(sp)
ffffffc0504001d2:	7159                	addi	sp,sp,-112
ffffffc0504001d4:	14001073          	csrw	sscratch,zero
ffffffc0504001d8:	00024197          	auipc	gp,0x24
ffffffc0504001dc:	2e018193          	addi	gp,gp,736 # ffffffc0504244b8 <__global_pointer$>
ffffffc0504001e0:	00023503          	ld	a0,0(tp) # 0 <_start-0xffffffc050400000>
ffffffc0504001e4:	07050513          	addi	a0,a0,112
ffffffc0504001e8:	143025f3          	csrr	a1,stval
ffffffc0504001ec:	14202673          	csrr	a2,scause
ffffffc0504001f0:	2a1000ef          	jal	ra,ffffffc050400c90 <interrupt_helper>
ffffffc0504001f4:	00000097          	auipc	ra,0x0
ffffffc0504001f8:	f2408093          	addi	ra,ra,-220 # ffffffc050400118 <ret_from_exception>
ffffffc0504001fc:	8082                	ret
	...

ffffffc050400200 <sbi_console_putstr>:
ffffffc050400200:	1101                	addi	sp,sp,-32
ffffffc050400202:	ec22                	sd	s0,24(sp)
ffffffc050400204:	1000                	addi	s0,sp,32
ffffffc050400206:	fea43423          	sd	a0,-24(s0)
ffffffc05040020a:	a839                	j	ffffffc050400228 <sbi_console_putstr+0x28>
ffffffc05040020c:	fe843783          	ld	a5,-24(s0)
ffffffc050400210:	00178713          	addi	a4,a5,1
ffffffc050400214:	fee43423          	sd	a4,-24(s0)
ffffffc050400218:	0007c783          	lbu	a5,0(a5)
ffffffc05040021c:	853e                	mv	a0,a5
ffffffc05040021e:	4581                	li	a1,0
ffffffc050400220:	4601                	li	a2,0
ffffffc050400222:	4885                	li	a7,1
ffffffc050400224:	00000073          	ecall
ffffffc050400228:	fe843783          	ld	a5,-24(s0)
ffffffc05040022c:	0007c783          	lbu	a5,0(a5)
ffffffc050400230:	fff1                	bnez	a5,ffffffc05040020c <sbi_console_putstr+0xc>
ffffffc050400232:	0001                	nop
ffffffc050400234:	0001                	nop
ffffffc050400236:	6462                	ld	s0,24(sp)
ffffffc050400238:	6105                	addi	sp,sp,32
ffffffc05040023a:	8082                	ret

ffffffc05040023c <sbi_console_putchar>:
ffffffc05040023c:	1101                	addi	sp,sp,-32
ffffffc05040023e:	ec22                	sd	s0,24(sp)
ffffffc050400240:	1000                	addi	s0,sp,32
ffffffc050400242:	87aa                	mv	a5,a0
ffffffc050400244:	fef42623          	sw	a5,-20(s0)
ffffffc050400248:	fec42783          	lw	a5,-20(s0)
ffffffc05040024c:	853e                	mv	a0,a5
ffffffc05040024e:	4581                	li	a1,0
ffffffc050400250:	4601                	li	a2,0
ffffffc050400252:	4885                	li	a7,1
ffffffc050400254:	00000073          	ecall
ffffffc050400258:	0001                	nop
ffffffc05040025a:	6462                	ld	s0,24(sp)
ffffffc05040025c:	6105                	addi	sp,sp,32
ffffffc05040025e:	8082                	ret

ffffffc050400260 <port_write_ch>:
ffffffc050400260:	1101                	addi	sp,sp,-32
ffffffc050400262:	ec06                	sd	ra,24(sp)
ffffffc050400264:	e822                	sd	s0,16(sp)
ffffffc050400266:	1000                	addi	s0,sp,32
ffffffc050400268:	87aa                	mv	a5,a0
ffffffc05040026a:	fef407a3          	sb	a5,-17(s0)
ffffffc05040026e:	fef44783          	lbu	a5,-17(s0)
ffffffc050400272:	2781                	sext.w	a5,a5
ffffffc050400274:	853e                	mv	a0,a5
ffffffc050400276:	fc7ff0ef          	jal	ra,ffffffc05040023c <sbi_console_putchar>
ffffffc05040027a:	0001                	nop
ffffffc05040027c:	60e2                	ld	ra,24(sp)
ffffffc05040027e:	6442                	ld	s0,16(sp)
ffffffc050400280:	6105                	addi	sp,sp,32
ffffffc050400282:	8082                	ret

ffffffc050400284 <port_write>:
ffffffc050400284:	1101                	addi	sp,sp,-32
ffffffc050400286:	ec06                	sd	ra,24(sp)
ffffffc050400288:	e822                	sd	s0,16(sp)
ffffffc05040028a:	1000                	addi	s0,sp,32
ffffffc05040028c:	fea43423          	sd	a0,-24(s0)
ffffffc050400290:	fe843503          	ld	a0,-24(s0)
ffffffc050400294:	f6dff0ef          	jal	ra,ffffffc050400200 <sbi_console_putstr>
ffffffc050400298:	0001                	nop
ffffffc05040029a:	60e2                	ld	ra,24(sp)
ffffffc05040029c:	6442                	ld	s0,16(sp)
ffffffc05040029e:	6105                	addi	sp,sp,32
ffffffc0504002a0:	8082                	ret
	...

ffffffc0504002a4 <get_current_cpu_id>:
ffffffc0504002a4:	f1402573          	csrr	a0,mhartid
ffffffc0504002a8:	8082                	ret

ffffffc0504002aa <sbi_console_getchar>:
ffffffc0504002aa:	1141                	addi	sp,sp,-16
ffffffc0504002ac:	e422                	sd	s0,8(sp)
ffffffc0504002ae:	0800                	addi	s0,sp,16
ffffffc0504002b0:	4501                	li	a0,0
ffffffc0504002b2:	4581                	li	a1,0
ffffffc0504002b4:	4601                	li	a2,0
ffffffc0504002b6:	4889                	li	a7,2
ffffffc0504002b8:	00000073          	ecall
ffffffc0504002bc:	87aa                	mv	a5,a0
ffffffc0504002be:	2781                	sext.w	a5,a5
ffffffc0504002c0:	853e                	mv	a0,a5
ffffffc0504002c2:	6422                	ld	s0,8(sp)
ffffffc0504002c4:	0141                	addi	sp,sp,16
ffffffc0504002c6:	8082                	ret

ffffffc0504002c8 <sbi_set_timer>:
ffffffc0504002c8:	1101                	addi	sp,sp,-32
ffffffc0504002ca:	ec22                	sd	s0,24(sp)
ffffffc0504002cc:	1000                	addi	s0,sp,32
ffffffc0504002ce:	fea43423          	sd	a0,-24(s0)
ffffffc0504002d2:	fe843503          	ld	a0,-24(s0)
ffffffc0504002d6:	4581                	li	a1,0
ffffffc0504002d8:	4601                	li	a2,0
ffffffc0504002da:	4881                	li	a7,0
ffffffc0504002dc:	00000073          	ecall
ffffffc0504002e0:	0001                	nop
ffffffc0504002e2:	6462                	ld	s0,24(sp)
ffffffc0504002e4:	6105                	addi	sp,sp,32
ffffffc0504002e6:	8082                	ret

ffffffc0504002e8 <sbi_read_fdt>:
ffffffc0504002e8:	1101                	addi	sp,sp,-32
ffffffc0504002ea:	ec22                	sd	s0,24(sp)
ffffffc0504002ec:	1000                	addi	s0,sp,32
ffffffc0504002ee:	87aa                	mv	a5,a0
ffffffc0504002f0:	fef42623          	sw	a5,-20(s0)
ffffffc0504002f4:	fec42783          	lw	a5,-20(s0)
ffffffc0504002f8:	853e                	mv	a0,a5
ffffffc0504002fa:	4581                	li	a1,0
ffffffc0504002fc:	4601                	li	a2,0
ffffffc0504002fe:	48b1                	li	a7,12
ffffffc050400300:	00000073          	ecall
ffffffc050400304:	87aa                	mv	a5,a0
ffffffc050400306:	2781                	sext.w	a5,a5
ffffffc050400308:	853e                	mv	a0,a5
ffffffc05040030a:	6462                	ld	s0,24(sp)
ffffffc05040030c:	6105                	addi	sp,sp,32
ffffffc05040030e:	8082                	ret

ffffffc050400310 <pa2kva>:
ffffffc050400310:	1101                	addi	sp,sp,-32
ffffffc050400312:	ec22                	sd	s0,24(sp)
ffffffc050400314:	1000                	addi	s0,sp,32
ffffffc050400316:	fea43423          	sd	a0,-24(s0)
ffffffc05040031a:	fe843703          	ld	a4,-24(s0)
ffffffc05040031e:	57fd                	li	a5,-1
ffffffc050400320:	179a                	slli	a5,a5,0x26
ffffffc050400322:	97ba                	add	a5,a5,a4
ffffffc050400324:	853e                	mv	a0,a5
ffffffc050400326:	6462                	ld	s0,24(sp)
ffffffc050400328:	6105                	addi	sp,sp,32
ffffffc05040032a:	8082                	ret

ffffffc05040032c <get_pa>:
ffffffc05040032c:	1101                	addi	sp,sp,-32
ffffffc05040032e:	ec22                	sd	s0,24(sp)
ffffffc050400330:	1000                	addi	s0,sp,32
ffffffc050400332:	fea43423          	sd	a0,-24(s0)
ffffffc050400336:	fe843783          	ld	a5,-24(s0)
ffffffc05040033a:	83a9                	srli	a5,a5,0xa
ffffffc05040033c:	07b2                	slli	a5,a5,0xc
ffffffc05040033e:	853e                	mv	a0,a5
ffffffc050400340:	6462                	ld	s0,24(sp)
ffffffc050400342:	6105                	addi	sp,sp,32
ffffffc050400344:	8082                	ret

ffffffc050400346 <is_elf_format>:
ffffffc050400346:	7179                	addi	sp,sp,-48
ffffffc050400348:	f422                	sd	s0,40(sp)
ffffffc05040034a:	1800                	addi	s0,sp,48
ffffffc05040034c:	fca43c23          	sd	a0,-40(s0)
ffffffc050400350:	fd843783          	ld	a5,-40(s0)
ffffffc050400354:	fef43423          	sd	a5,-24(s0)
ffffffc050400358:	fe843783          	ld	a5,-24(s0)
ffffffc05040035c:	0007c783          	lbu	a5,0(a5)
ffffffc050400360:	eb9d                	bnez	a5,ffffffc050400396 <is_elf_format+0x50>
ffffffc050400362:	fe843783          	ld	a5,-24(s0)
ffffffc050400366:	0017c783          	lbu	a5,1(a5)
ffffffc05040036a:	873e                	mv	a4,a5
ffffffc05040036c:	4785                	li	a5,1
ffffffc05040036e:	02f71463          	bne	a4,a5,ffffffc050400396 <is_elf_format+0x50>
ffffffc050400372:	fe843783          	ld	a5,-24(s0)
ffffffc050400376:	0027c783          	lbu	a5,2(a5)
ffffffc05040037a:	873e                	mv	a4,a5
ffffffc05040037c:	4789                	li	a5,2
ffffffc05040037e:	00f71c63          	bne	a4,a5,ffffffc050400396 <is_elf_format+0x50>
ffffffc050400382:	fe843783          	ld	a5,-24(s0)
ffffffc050400386:	0037c783          	lbu	a5,3(a5)
ffffffc05040038a:	873e                	mv	a4,a5
ffffffc05040038c:	478d                	li	a5,3
ffffffc05040038e:	00f71463          	bne	a4,a5,ffffffc050400396 <is_elf_format+0x50>
ffffffc050400392:	4781                	li	a5,0
ffffffc050400394:	a011                	j	ffffffc050400398 <is_elf_format+0x52>
ffffffc050400396:	4785                	li	a5,1
ffffffc050400398:	853e                	mv	a0,a5
ffffffc05040039a:	7422                	ld	s0,40(sp)
ffffffc05040039c:	6145                	addi	sp,sp,48
ffffffc05040039e:	8082                	ret

ffffffc0504003a0 <load_elf>:
ffffffc0504003a0:	7159                	addi	sp,sp,-112
ffffffc0504003a2:	f486                	sd	ra,104(sp)
ffffffc0504003a4:	f0a2                	sd	s0,96(sp)
ffffffc0504003a6:	1880                	addi	s0,sp,112
ffffffc0504003a8:	faa43423          	sd	a0,-88(s0)
ffffffc0504003ac:	87ae                	mv	a5,a1
ffffffc0504003ae:	f8c43c23          	sd	a2,-104(s0)
ffffffc0504003b2:	f8d43823          	sd	a3,-112(s0)
ffffffc0504003b6:	faf42223          	sw	a5,-92(s0)
ffffffc0504003ba:	fa843783          	ld	a5,-88(s0)
ffffffc0504003be:	fcf43823          	sd	a5,-48(s0)
ffffffc0504003c2:	fc043423          	sd	zero,-56(s0)
ffffffc0504003c6:	fe043423          	sd	zero,-24(s0)
ffffffc0504003ca:	fe042023          	sw	zero,-32(s0)
ffffffc0504003ce:	fa442783          	lw	a5,-92(s0)
ffffffc0504003d2:	0007871b          	sext.w	a4,a5
ffffffc0504003d6:	478d                	li	a5,3
ffffffc0504003d8:	00e7f863          	bgeu	a5,a4,ffffffc0504003e8 <load_elf+0x48>
ffffffc0504003dc:	fa843503          	ld	a0,-88(s0)
ffffffc0504003e0:	f67ff0ef          	jal	ra,ffffffc050400346 <is_elf_format>
ffffffc0504003e4:	87aa                	mv	a5,a0
ffffffc0504003e6:	e399                	bnez	a5,ffffffc0504003ec <load_elf+0x4c>
ffffffc0504003e8:	4781                	li	a5,0
ffffffc0504003ea:	a259                	j	ffffffc050400570 <load_elf+0x1d0>
ffffffc0504003ec:	fd043783          	ld	a5,-48(s0)
ffffffc0504003f0:	739c                	ld	a5,32(a5)
ffffffc0504003f2:	fa843703          	ld	a4,-88(s0)
ffffffc0504003f6:	97ba                	add	a5,a5,a4
ffffffc0504003f8:	fef43423          	sd	a5,-24(s0)
ffffffc0504003fc:	fd043783          	ld	a5,-48(s0)
ffffffc050400400:	0387d783          	lhu	a5,56(a5)
ffffffc050400404:	fef41323          	sh	a5,-26(s0)
ffffffc050400408:	fd043783          	ld	a5,-48(s0)
ffffffc05040040c:	0367d783          	lhu	a5,54(a5)
ffffffc050400410:	fcf41323          	sh	a5,-58(s0)
ffffffc050400414:	a299                	j	ffffffc05040055a <load_elf+0x1ba>
ffffffc050400416:	fe843783          	ld	a5,-24(s0)
ffffffc05040041a:	fcf43423          	sd	a5,-56(s0)
ffffffc05040041e:	fc843783          	ld	a5,-56(s0)
ffffffc050400422:	439c                	lw	a5,0(a5)
ffffffc050400424:	873e                	mv	a4,a5
ffffffc050400426:	4785                	li	a5,1
ffffffc050400428:	12f71263          	bne	a4,a5,ffffffc05040054c <load_elf+0x1ac>
ffffffc05040042c:	fe042023          	sw	zero,-32(s0)
ffffffc050400430:	a239                	j	ffffffc05040053e <load_elf+0x19e>
ffffffc050400432:	fe042703          	lw	a4,-32(s0)
ffffffc050400436:	fc843783          	ld	a5,-56(s0)
ffffffc05040043a:	739c                	ld	a5,32(a5)
ffffffc05040043c:	0af77463          	bgeu	a4,a5,ffffffc0504004e4 <load_elf+0x144>
ffffffc050400440:	fc843783          	ld	a5,-56(s0)
ffffffc050400444:	6b98                	ld	a4,16(a5)
ffffffc050400446:	fe042783          	lw	a5,-32(s0)
ffffffc05040044a:	97ba                	add	a5,a5,a4
ffffffc05040044c:	f9043703          	ld	a4,-112(s0)
ffffffc050400450:	f9843583          	ld	a1,-104(s0)
ffffffc050400454:	853e                	mv	a0,a5
ffffffc050400456:	9702                	jalr	a4
ffffffc050400458:	87aa                	mv	a5,a0
ffffffc05040045a:	faf43823          	sd	a5,-80(s0)
ffffffc05040045e:	fc843783          	ld	a5,-56(s0)
ffffffc050400462:	6798                	ld	a4,8(a5)
ffffffc050400464:	fe042783          	lw	a5,-32(s0)
ffffffc050400468:	97ba                	add	a5,a5,a4
ffffffc05040046a:	fa843703          	ld	a4,-88(s0)
ffffffc05040046e:	00f706b3          	add	a3,a4,a5
ffffffc050400472:	fc843783          	ld	a5,-56(s0)
ffffffc050400476:	7398                	ld	a4,32(a5)
ffffffc050400478:	fe042783          	lw	a5,-32(s0)
ffffffc05040047c:	40f707b3          	sub	a5,a4,a5
ffffffc050400480:	6705                	lui	a4,0x1
ffffffc050400482:	00f77363          	bgeu	a4,a5,ffffffc050400488 <load_elf+0xe8>
ffffffc050400486:	6785                	lui	a5,0x1
ffffffc050400488:	2781                	sext.w	a5,a5
ffffffc05040048a:	863e                	mv	a2,a5
ffffffc05040048c:	85b6                	mv	a1,a3
ffffffc05040048e:	fb043503          	ld	a0,-80(s0)
ffffffc050400492:	4c6020ef          	jal	ra,ffffffc050402958 <memcpy>
ffffffc050400496:	fc843783          	ld	a5,-56(s0)
ffffffc05040049a:	7398                	ld	a4,32(a5)
ffffffc05040049c:	fe042783          	lw	a5,-32(s0)
ffffffc0504004a0:	8f1d                	sub	a4,a4,a5
ffffffc0504004a2:	6785                	lui	a5,0x1
ffffffc0504004a4:	08f77663          	bgeu	a4,a5,ffffffc050400530 <load_elf+0x190>
ffffffc0504004a8:	fc843783          	ld	a5,-56(s0)
ffffffc0504004ac:	739c                	ld	a5,32(a5)
ffffffc0504004ae:	0007871b          	sext.w	a4,a5
ffffffc0504004b2:	6785                	lui	a5,0x1
ffffffc0504004b4:	17fd                	addi	a5,a5,-1
ffffffc0504004b6:	8ff9                	and	a5,a5,a4
ffffffc0504004b8:	fcf42e23          	sw	a5,-36(s0)
ffffffc0504004bc:	a829                	j	ffffffc0504004d6 <load_elf+0x136>
ffffffc0504004be:	fdc42783          	lw	a5,-36(s0)
ffffffc0504004c2:	fb043703          	ld	a4,-80(s0)
ffffffc0504004c6:	97ba                	add	a5,a5,a4
ffffffc0504004c8:	00078023          	sb	zero,0(a5) # 1000 <_start-0xffffffc0503ff000>
ffffffc0504004cc:	fdc42783          	lw	a5,-36(s0)
ffffffc0504004d0:	2785                	addiw	a5,a5,1
ffffffc0504004d2:	fcf42e23          	sw	a5,-36(s0)
ffffffc0504004d6:	fdc42783          	lw	a5,-36(s0)
ffffffc0504004da:	873e                	mv	a4,a5
ffffffc0504004dc:	6785                	lui	a5,0x1
ffffffc0504004de:	fef760e3          	bltu	a4,a5,ffffffc0504004be <load_elf+0x11e>
ffffffc0504004e2:	a0b9                	j	ffffffc050400530 <load_elf+0x190>
ffffffc0504004e4:	fc843783          	ld	a5,-56(s0)
ffffffc0504004e8:	6b98                	ld	a4,16(a5)
ffffffc0504004ea:	fe042783          	lw	a5,-32(s0)
ffffffc0504004ee:	97ba                	add	a5,a5,a4
ffffffc0504004f0:	f9043703          	ld	a4,-112(s0)
ffffffc0504004f4:	f9843583          	ld	a1,-104(s0)
ffffffc0504004f8:	853e                	mv	a0,a5
ffffffc0504004fa:	9702                	jalr	a4
ffffffc0504004fc:	87aa                	mv	a5,a0
ffffffc0504004fe:	faf43c23          	sd	a5,-72(s0)
ffffffc050400502:	fc042c23          	sw	zero,-40(s0)
ffffffc050400506:	a831                	j	ffffffc050400522 <load_elf+0x182>
ffffffc050400508:	fd842783          	lw	a5,-40(s0)
ffffffc05040050c:	078e                	slli	a5,a5,0x3
ffffffc05040050e:	fb843703          	ld	a4,-72(s0)
ffffffc050400512:	97ba                	add	a5,a5,a4
ffffffc050400514:	0007b023          	sd	zero,0(a5) # 1000 <_start-0xffffffc0503ff000>
ffffffc050400518:	fd842783          	lw	a5,-40(s0)
ffffffc05040051c:	2785                	addiw	a5,a5,1
ffffffc05040051e:	fcf42c23          	sw	a5,-40(s0)
ffffffc050400522:	fd842783          	lw	a5,-40(s0)
ffffffc050400526:	873e                	mv	a4,a5
ffffffc050400528:	1ff00793          	li	a5,511
ffffffc05040052c:	fce7fee3          	bgeu	a5,a4,ffffffc050400508 <load_elf+0x168>
ffffffc050400530:	fe042703          	lw	a4,-32(s0)
ffffffc050400534:	6785                	lui	a5,0x1
ffffffc050400536:	9fb9                	addw	a5,a5,a4
ffffffc050400538:	2781                	sext.w	a5,a5
ffffffc05040053a:	fef42023          	sw	a5,-32(s0)
ffffffc05040053e:	fe042703          	lw	a4,-32(s0)
ffffffc050400542:	fc843783          	ld	a5,-56(s0)
ffffffc050400546:	779c                	ld	a5,40(a5)
ffffffc050400548:	eef765e3          	bltu	a4,a5,ffffffc050400432 <load_elf+0x92>
ffffffc05040054c:	fc645783          	lhu	a5,-58(s0)
ffffffc050400550:	fe843703          	ld	a4,-24(s0)
ffffffc050400554:	97ba                	add	a5,a5,a4
ffffffc050400556:	fef43423          	sd	a5,-24(s0)
ffffffc05040055a:	fe645783          	lhu	a5,-26(s0)
ffffffc05040055e:	fff7871b          	addiw	a4,a5,-1
ffffffc050400562:	fee41323          	sh	a4,-26(s0)
ffffffc050400566:	ea0798e3          	bnez	a5,ffffffc050400416 <load_elf+0x76>
ffffffc05040056a:	fd043783          	ld	a5,-48(s0)
ffffffc05040056e:	6f9c                	ld	a5,24(a5)
ffffffc050400570:	853e                	mv	a0,a5
ffffffc050400572:	70a6                	ld	ra,104(sp)
ffffffc050400574:	7406                	ld	s0,96(sp)
ffffffc050400576:	6165                	addi	sp,sp,112
ffffffc050400578:	8082                	ret

ffffffc05040057a <init_pcb_stack>:
ffffffc05040057a:	711d                	addi	sp,sp,-96
ffffffc05040057c:	eca2                	sd	s0,88(sp)
ffffffc05040057e:	1080                	addi	s0,sp,96
ffffffc050400580:	fca43423          	sd	a0,-56(s0)
ffffffc050400584:	fcb43023          	sd	a1,-64(s0)
ffffffc050400588:	fac43c23          	sd	a2,-72(s0)
ffffffc05040058c:	fad43823          	sd	a3,-80(s0)
ffffffc050400590:	fae43423          	sd	a4,-88(s0)
ffffffc050400594:	faf43023          	sd	a5,-96(s0)
ffffffc050400598:	fc843783          	ld	a5,-56(s0)
ffffffc05040059c:	ee078793          	addi	a5,a5,-288 # ee0 <_start-0xffffffc0503ff120>
ffffffc0504005a0:	fef43023          	sd	a5,-32(s0)
ffffffc0504005a4:	fe042623          	sw	zero,-20(s0)
ffffffc0504005a8:	a831                	j	ffffffc0504005c4 <init_pcb_stack+0x4a>
ffffffc0504005aa:	fe043703          	ld	a4,-32(s0)
ffffffc0504005ae:	fec42783          	lw	a5,-20(s0)
ffffffc0504005b2:	078e                	slli	a5,a5,0x3
ffffffc0504005b4:	97ba                	add	a5,a5,a4
ffffffc0504005b6:	0007b023          	sd	zero,0(a5)
ffffffc0504005ba:	fec42783          	lw	a5,-20(s0)
ffffffc0504005be:	2785                	addiw	a5,a5,1
ffffffc0504005c0:	fef42623          	sw	a5,-20(s0)
ffffffc0504005c4:	fec42783          	lw	a5,-20(s0)
ffffffc0504005c8:	0007871b          	sext.w	a4,a5
ffffffc0504005cc:	47fd                	li	a5,31
ffffffc0504005ce:	fce7dee3          	bge	a5,a4,ffffffc0504005aa <init_pcb_stack+0x30>
ffffffc0504005d2:	fe043783          	ld	a5,-32(s0)
ffffffc0504005d6:	fb843703          	ld	a4,-72(s0)
ffffffc0504005da:	e798                	sd	a4,8(a5)
ffffffc0504005dc:	fe043783          	ld	a5,-32(s0)
ffffffc0504005e0:	0f000737          	lui	a4,0xf000
ffffffc0504005e4:	0ff70713          	addi	a4,a4,255 # f0000ff <_start-0xffffffc0413fff01>
ffffffc0504005e8:	0722                	slli	a4,a4,0x8
ffffffc0504005ea:	eb98                	sd	a4,16(a5)
ffffffc0504005ec:	00018713          	mv	a4,gp
ffffffc0504005f0:	fe043783          	ld	a5,-32(s0)
ffffffc0504005f4:	ef98                	sd	a4,24(a5)
ffffffc0504005f6:	fa843703          	ld	a4,-88(s0)
ffffffc0504005fa:	fe043783          	ld	a5,-32(s0)
ffffffc0504005fe:	ebb8                	sd	a4,80(a5)
ffffffc050400600:	fa043703          	ld	a4,-96(s0)
ffffffc050400604:	fe043783          	ld	a5,-32(s0)
ffffffc050400608:	efb8                	sd	a4,88(a5)
ffffffc05040060a:	fe043783          	ld	a5,-32(s0)
ffffffc05040060e:	fb843703          	ld	a4,-72(s0)
ffffffc050400612:	10e7b423          	sd	a4,264(a5)
ffffffc050400616:	fe043783          	ld	a5,-32(s0)
ffffffc05040061a:	00040737          	lui	a4,0x40
ffffffc05040061e:	10e7b023          	sd	a4,256(a5)
ffffffc050400622:	fe043783          	ld	a5,-32(s0)
ffffffc050400626:	1007bc23          	sd	zero,280(a5)
ffffffc05040062a:	fe043783          	ld	a5,-32(s0)
ffffffc05040062e:	1007b823          	sd	zero,272(a5)
ffffffc050400632:	fc843783          	ld	a5,-56(s0)
ffffffc050400636:	e7078713          	addi	a4,a5,-400
ffffffc05040063a:	fb043783          	ld	a5,-80(s0)
ffffffc05040063e:	e398                	sd	a4,0(a5)
ffffffc050400640:	fb043783          	ld	a5,-80(s0)
ffffffc050400644:	639c                	ld	a5,0(a5)
ffffffc050400646:	fcf43c23          	sd	a5,-40(s0)
ffffffc05040064a:	00000717          	auipc	a4,0x0
ffffffc05040064e:	ace70713          	addi	a4,a4,-1330 # ffffffc050400118 <ret_from_exception>
ffffffc050400652:	fd843783          	ld	a5,-40(s0)
ffffffc050400656:	e398                	sd	a4,0(a5)
ffffffc050400658:	fd843783          	ld	a5,-40(s0)
ffffffc05040065c:	fc043703          	ld	a4,-64(s0)
ffffffc050400660:	e798                	sd	a4,8(a5)
ffffffc050400662:	4789                	li	a5,2
ffffffc050400664:	fef42623          	sw	a5,-20(s0)
ffffffc050400668:	a831                	j	ffffffc050400684 <init_pcb_stack+0x10a>
ffffffc05040066a:	fd843703          	ld	a4,-40(s0)
ffffffc05040066e:	fec42783          	lw	a5,-20(s0)
ffffffc050400672:	078e                	slli	a5,a5,0x3
ffffffc050400674:	97ba                	add	a5,a5,a4
ffffffc050400676:	0007b023          	sd	zero,0(a5)
ffffffc05040067a:	fec42783          	lw	a5,-20(s0)
ffffffc05040067e:	2785                	addiw	a5,a5,1
ffffffc050400680:	fef42623          	sw	a5,-20(s0)
ffffffc050400684:	fec42783          	lw	a5,-20(s0)
ffffffc050400688:	0007871b          	sext.w	a4,a5
ffffffc05040068c:	47b5                	li	a5,13
ffffffc05040068e:	fce7dee3          	bge	a5,a4,ffffffc05040066a <init_pcb_stack+0xf0>
ffffffc050400692:	00026797          	auipc	a5,0x26
ffffffc050400696:	e6e78793          	addi	a5,a5,-402 # ffffffc050426500 <current_running>
ffffffc05040069a:	00004717          	auipc	a4,0x4
ffffffc05040069e:	39670713          	addi	a4,a4,918 # ffffffc050404a30 <pid0_pcb>
ffffffc0504006a2:	e398                	sd	a4,0(a5)
ffffffc0504006a4:	0001                	nop
ffffffc0504006a6:	6466                	ld	s0,88(sp)
ffffffc0504006a8:	6125                	addi	sp,sp,96
ffffffc0504006aa:	8082                	ret

ffffffc0504006ac <init_shell>:
ffffffc0504006ac:	7179                	addi	sp,sp,-48
ffffffc0504006ae:	f406                	sd	ra,40(sp)
ffffffc0504006b0:	f022                	sd	s0,32(sp)
ffffffc0504006b2:	ec26                	sd	s1,24(sp)
ffffffc0504006b4:	1800                	addi	s0,sp,48
ffffffc0504006b6:	00026797          	auipc	a5,0x26
ffffffc0504006ba:	e5278793          	addi	a5,a5,-430 # ffffffc050426508 <pcb>
ffffffc0504006be:	4705                	li	a4,1
ffffffc0504006c0:	c7b8                	sw	a4,72(a5)
ffffffc0504006c2:	00026797          	auipc	a5,0x26
ffffffc0504006c6:	e4678793          	addi	a5,a5,-442 # ffffffc050426508 <pcb>
ffffffc0504006ca:	4709                	li	a4,2
ffffffc0504006cc:	cbb8                	sw	a4,80(a5)
ffffffc0504006ce:	00026797          	auipc	a5,0x26
ffffffc0504006d2:	e3a78793          	addi	a5,a5,-454 # ffffffc050426508 <pcb>
ffffffc0504006d6:	4709                	li	a4,2
ffffffc0504006d8:	c7f8                	sw	a4,76(a5)
ffffffc0504006da:	677010ef          	jal	ra,ffffffc050402550 <allocPage>
ffffffc0504006de:	872a                	mv	a4,a0
ffffffc0504006e0:	00026797          	auipc	a5,0x26
ffffffc0504006e4:	e2878793          	addi	a5,a5,-472 # ffffffc050426508 <pcb>
ffffffc0504006e8:	e3f8                	sd	a4,192(a5)
ffffffc0504006ea:	00026797          	auipc	a5,0x26
ffffffc0504006ee:	e1e78793          	addi	a5,a5,-482 # ffffffc050426508 <pcb>
ffffffc0504006f2:	63e4                	ld	s1,192(a5)
ffffffc0504006f4:	5e000537          	lui	a0,0x5e000
ffffffc0504006f8:	c19ff0ef          	jal	ra,ffffffc050400310 <pa2kva>
ffffffc0504006fc:	87aa                	mv	a5,a0
ffffffc0504006fe:	85be                	mv	a1,a5
ffffffc050400700:	8526                	mv	a0,s1
ffffffc050400702:	6e3010ef          	jal	ra,ffffffc0504025e4 <share_pgtable>
ffffffc050400706:	00026797          	auipc	a5,0x26
ffffffc05040070a:	e0278793          	addi	a5,a5,-510 # ffffffc050426508 <pcb>
ffffffc05040070e:	63fc                	ld	a5,192(a5)
ffffffc050400710:	4601                	li	a2,0
ffffffc050400712:	85be                	mv	a1,a5
ffffffc050400714:	c0f00793          	li	a5,-1009
ffffffc050400718:	01c79513          	slli	a0,a5,0x1c
ffffffc05040071c:	6f1010ef          	jal	ra,ffffffc05040260c <alloc_page_helper>
ffffffc050400720:	872a                	mv	a4,a0
ffffffc050400722:	6785                	lui	a5,0x1
ffffffc050400724:	973e                	add	a4,a4,a5
ffffffc050400726:	00026797          	auipc	a5,0x26
ffffffc05040072a:	de278793          	addi	a5,a5,-542 # ffffffc050426508 <pcb>
ffffffc05040072e:	e398                	sd	a4,0(a5)
ffffffc050400730:	00026797          	auipc	a5,0x26
ffffffc050400734:	dd878793          	addi	a5,a5,-552 # ffffffc050426508 <pcb>
ffffffc050400738:	63fc                	ld	a5,192(a5)
ffffffc05040073a:	4605                	li	a2,1
ffffffc05040073c:	85be                	mv	a1,a5
ffffffc05040073e:	00f007b7          	lui	a5,0xf00
ffffffc050400742:	07bd                	addi	a5,a5,15
ffffffc050400744:	00c79513          	slli	a0,a5,0xc
ffffffc050400748:	6c5010ef          	jal	ra,ffffffc05040260c <alloc_page_helper>
ffffffc05040074c:	872a                	mv	a4,a0
ffffffc05040074e:	6785                	lui	a5,0x1
ffffffc050400750:	f0078793          	addi	a5,a5,-256 # f00 <_start-0xffffffc0503ff100>
ffffffc050400754:	973e                	add	a4,a4,a5
ffffffc050400756:	00026797          	auipc	a5,0x26
ffffffc05040075a:	db278793          	addi	a5,a5,-590 # ffffffc050426508 <pcb>
ffffffc05040075e:	e798                	sd	a4,8(a5)
ffffffc050400760:	00026597          	auipc	a1,0x26
ffffffc050400764:	dd058593          	addi	a1,a1,-560 # ffffffc050426530 <pcb+0x28>
ffffffc050400768:	00004517          	auipc	a0,0x4
ffffffc05040076c:	2a850513          	addi	a0,a0,680 # ffffffc050404a10 <ready_queue>
ffffffc050400770:	429010ef          	jal	ra,ffffffc050402398 <enqueue>
ffffffc050400774:	00026797          	auipc	a5,0x26
ffffffc050400778:	d9478793          	addi	a5,a5,-620 # ffffffc050426508 <pcb>
ffffffc05040077c:	4705                	li	a4,1
ffffffc05040077e:	cfb8                	sw	a4,88(a5)
ffffffc050400780:	00026797          	auipc	a5,0x26
ffffffc050400784:	d8878793          	addi	a5,a5,-632 # ffffffc050426508 <pcb>
ffffffc050400788:	4705                	li	a4,1
ffffffc05040078a:	cff8                	sw	a4,92(a5)
ffffffc05040078c:	81818793          	addi	a5,gp,-2024 # ffffffc050423cd0 <_length___test_test_shell_elf>
ffffffc050400790:	439c                	lw	a5,0(a5)
ffffffc050400792:	0007871b          	sext.w	a4,a5
ffffffc050400796:	00026797          	auipc	a5,0x26
ffffffc05040079a:	d7278793          	addi	a5,a5,-654 # ffffffc050426508 <pcb>
ffffffc05040079e:	63fc                	ld	a5,192(a5)
ffffffc0504007a0:	00002697          	auipc	a3,0x2
ffffffc0504007a4:	fee68693          	addi	a3,a3,-18 # ffffffc05040278e <elf_alloc_page_helper>
ffffffc0504007a8:	863e                	mv	a2,a5
ffffffc0504007aa:	85ba                	mv	a1,a4
ffffffc0504007ac:	00004517          	auipc	a0,0x4
ffffffc0504007b0:	36c50513          	addi	a0,a0,876 # ffffffc050404b18 <_elf___test_test_shell_elf>
ffffffc0504007b4:	bedff0ef          	jal	ra,ffffffc0504003a0 <load_elf>
ffffffc0504007b8:	fca43c23          	sd	a0,-40(s0)
ffffffc0504007bc:	00026797          	auipc	a5,0x26
ffffffc0504007c0:	d4c78793          	addi	a5,a5,-692 # ffffffc050426508 <pcb>
ffffffc0504007c4:	6388                	ld	a0,0(a5)
ffffffc0504007c6:	00026797          	auipc	a5,0x26
ffffffc0504007ca:	d4278793          	addi	a5,a5,-702 # ffffffc050426508 <pcb>
ffffffc0504007ce:	678c                	ld	a1,8(a5)
ffffffc0504007d0:	4781                	li	a5,0
ffffffc0504007d2:	4701                	li	a4,0
ffffffc0504007d4:	00026697          	auipc	a3,0x26
ffffffc0504007d8:	d3468693          	addi	a3,a3,-716 # ffffffc050426508 <pcb>
ffffffc0504007dc:	fd843603          	ld	a2,-40(s0)
ffffffc0504007e0:	d9bff0ef          	jal	ra,ffffffc05040057a <init_pcb_stack>
ffffffc0504007e4:	00026797          	auipc	a5,0x26
ffffffc0504007e8:	d1c78793          	addi	a5,a5,-740 # ffffffc050426500 <current_running>
ffffffc0504007ec:	00004717          	auipc	a4,0x4
ffffffc0504007f0:	24470713          	addi	a4,a4,580 # ffffffc050404a30 <pid0_pcb>
ffffffc0504007f4:	e398                	sd	a4,0(a5)
ffffffc0504007f6:	0001                	nop
ffffffc0504007f8:	70a2                	ld	ra,40(sp)
ffffffc0504007fa:	7402                	ld	s0,32(sp)
ffffffc0504007fc:	64e2                	ld	s1,24(sp)
ffffffc0504007fe:	6145                	addi	sp,sp,48
ffffffc050400800:	8082                	ret

ffffffc050400802 <find_freepcb>:
ffffffc050400802:	1101                	addi	sp,sp,-32
ffffffc050400804:	ec22                	sd	s0,24(sp)
ffffffc050400806:	1000                	addi	s0,sp,32
ffffffc050400808:	4785                	li	a5,1
ffffffc05040080a:	fef42623          	sw	a5,-20(s0)
ffffffc05040080e:	a035                	j	ffffffc05040083a <find_freepcb+0x38>
ffffffc050400810:	00026717          	auipc	a4,0x26
ffffffc050400814:	cf870713          	addi	a4,a4,-776 # ffffffc050426508 <pcb>
ffffffc050400818:	fec42683          	lw	a3,-20(s0)
ffffffc05040081c:	0d800793          	li	a5,216
ffffffc050400820:	02f687b3          	mul	a5,a3,a5
ffffffc050400824:	97ba                	add	a5,a5,a4
ffffffc050400826:	47bc                	lw	a5,72(a5)
ffffffc050400828:	e781                	bnez	a5,ffffffc050400830 <find_freepcb+0x2e>
ffffffc05040082a:	fec42783          	lw	a5,-20(s0)
ffffffc05040082e:	a831                	j	ffffffc05040084a <find_freepcb+0x48>
ffffffc050400830:	fec42783          	lw	a5,-20(s0)
ffffffc050400834:	2785                	addiw	a5,a5,1
ffffffc050400836:	fef42623          	sw	a5,-20(s0)
ffffffc05040083a:	fec42783          	lw	a5,-20(s0)
ffffffc05040083e:	0007871b          	sext.w	a4,a5
ffffffc050400842:	47bd                	li	a5,15
ffffffc050400844:	fce7d6e3          	bge	a5,a4,ffffffc050400810 <find_freepcb+0xe>
ffffffc050400848:	57fd                	li	a5,-1
ffffffc05040084a:	853e                	mv	a0,a5
ffffffc05040084c:	6462                	ld	s0,24(sp)
ffffffc05040084e:	6105                	addi	sp,sp,32
ffffffc050400850:	8082                	ret

ffffffc050400852 <cancel_map>:
ffffffc050400852:	715d                	addi	sp,sp,-80
ffffffc050400854:	e486                	sd	ra,72(sp)
ffffffc050400856:	e0a2                	sd	s0,64(sp)
ffffffc050400858:	fc26                	sd	s1,56(sp)
ffffffc05040085a:	0880                	addi	s0,sp,80
ffffffc05040085c:	502007b7          	lui	a5,0x50200
ffffffc050400860:	fcf43c23          	sd	a5,-40(s0)
ffffffc050400864:	fe02f7b7          	lui	a5,0xfe02f
ffffffc050400868:	07b6                	slli	a5,a5,0xd
ffffffc05040086a:	fcf43823          	sd	a5,-48(s0)
ffffffc05040086e:	fd843783          	ld	a5,-40(s0)
ffffffc050400872:	83f9                	srli	a5,a5,0x1e
ffffffc050400874:	fcf43423          	sd	a5,-56(s0)
ffffffc050400878:	fc843783          	ld	a5,-56(s0)
ffffffc05040087c:	00979713          	slli	a4,a5,0x9
ffffffc050400880:	fd843783          	ld	a5,-40(s0)
ffffffc050400884:	83d5                	srli	a5,a5,0x15
ffffffc050400886:	8fb9                	xor	a5,a5,a4
ffffffc050400888:	fcf43023          	sd	a5,-64(s0)
ffffffc05040088c:	fc843783          	ld	a5,-56(s0)
ffffffc050400890:	00379713          	slli	a4,a5,0x3
ffffffc050400894:	fd043783          	ld	a5,-48(s0)
ffffffc050400898:	97ba                	add	a5,a5,a4
ffffffc05040089a:	faf43c23          	sd	a5,-72(s0)
ffffffc05040089e:	fc043783          	ld	a5,-64(s0)
ffffffc0504008a2:	00379493          	slli	s1,a5,0x3
ffffffc0504008a6:	fb843783          	ld	a5,-72(s0)
ffffffc0504008aa:	639c                	ld	a5,0(a5)
ffffffc0504008ac:	853e                	mv	a0,a5
ffffffc0504008ae:	a7fff0ef          	jal	ra,ffffffc05040032c <get_pa>
ffffffc0504008b2:	87aa                	mv	a5,a0
ffffffc0504008b4:	853e                	mv	a0,a5
ffffffc0504008b6:	a5bff0ef          	jal	ra,ffffffc050400310 <pa2kva>
ffffffc0504008ba:	87aa                	mv	a5,a0
ffffffc0504008bc:	97a6                	add	a5,a5,s1
ffffffc0504008be:	faf43823          	sd	a5,-80(s0)
ffffffc0504008c2:	fb843783          	ld	a5,-72(s0)
ffffffc0504008c6:	0007b023          	sd	zero,0(a5) # fffffffffe02f000 <__BSS_END__+0x3fadc06cb8>
ffffffc0504008ca:	fb043783          	ld	a5,-80(s0)
ffffffc0504008ce:	0007b023          	sd	zero,0(a5)
ffffffc0504008d2:	0001                	nop
ffffffc0504008d4:	60a6                	ld	ra,72(sp)
ffffffc0504008d6:	6406                	ld	s0,64(sp)
ffffffc0504008d8:	74e2                	ld	s1,56(sp)
ffffffc0504008da:	6161                	addi	sp,sp,80
ffffffc0504008dc:	8082                	ret

ffffffc0504008de <error_syscall>:
ffffffc0504008de:	1141                	addi	sp,sp,-16
ffffffc0504008e0:	e406                	sd	ra,8(sp)
ffffffc0504008e2:	e022                	sd	s0,0(sp)
ffffffc0504008e4:	0800                	addi	s0,sp,16
ffffffc0504008e6:	00004517          	auipc	a0,0x4
ffffffc0504008ea:	a6250513          	addi	a0,a0,-1438 # ffffffc050404348 <get_elf_file+0xa8>
ffffffc0504008ee:	371020ef          	jal	ra,ffffffc05040345e <printk>
ffffffc0504008f2:	0001                	nop
ffffffc0504008f4:	60a2                	ld	ra,8(sp)
ffffffc0504008f6:	6402                	ld	s0,0(sp)
ffffffc0504008f8:	0141                	addi	sp,sp,16
ffffffc0504008fa:	8082                	ret

ffffffc0504008fc <init_syscall>:
ffffffc0504008fc:	1101                	addi	sp,sp,-32
ffffffc0504008fe:	ec22                	sd	s0,24(sp)
ffffffc050400900:	1000                	addi	s0,sp,32
ffffffc050400902:	fe042623          	sw	zero,-20(s0)
ffffffc050400906:	a01d                	j	ffffffc05040092c <init_syscall+0x30>
ffffffc050400908:	00027717          	auipc	a4,0x27
ffffffc05040090c:	98070713          	addi	a4,a4,-1664 # ffffffc050427288 <syscall>
ffffffc050400910:	fec42783          	lw	a5,-20(s0)
ffffffc050400914:	078e                	slli	a5,a5,0x3
ffffffc050400916:	97ba                	add	a5,a5,a4
ffffffc050400918:	00000717          	auipc	a4,0x0
ffffffc05040091c:	fc670713          	addi	a4,a4,-58 # ffffffc0504008de <error_syscall>
ffffffc050400920:	e398                	sd	a4,0(a5)
ffffffc050400922:	fec42783          	lw	a5,-20(s0)
ffffffc050400926:	2785                	addiw	a5,a5,1
ffffffc050400928:	fef42623          	sw	a5,-20(s0)
ffffffc05040092c:	fec42783          	lw	a5,-20(s0)
ffffffc050400930:	0007871b          	sext.w	a4,a5
ffffffc050400934:	03f00793          	li	a5,63
ffffffc050400938:	fce7d8e3          	bge	a5,a4,ffffffc050400908 <init_syscall+0xc>
ffffffc05040093c:	00027797          	auipc	a5,0x27
ffffffc050400940:	94c78793          	addi	a5,a5,-1716 # ffffffc050427288 <syscall>
ffffffc050400944:	00001717          	auipc	a4,0x1
ffffffc050400948:	38e70713          	addi	a4,a4,910 # ffffffc050401cd2 <do_sleep>
ffffffc05040094c:	eb98                	sd	a4,16(a5)
ffffffc05040094e:	00027797          	auipc	a5,0x27
ffffffc050400952:	93a78793          	addi	a5,a5,-1734 # ffffffc050427288 <syscall>
ffffffc050400956:	00001717          	auipc	a4,0x1
ffffffc05040095a:	8c470713          	addi	a4,a4,-1852 # ffffffc05040121a <screen_write>
ffffffc05040095e:	f3d8                	sd	a4,160(a5)
ffffffc050400960:	00027797          	auipc	a5,0x27
ffffffc050400964:	92878793          	addi	a5,a5,-1752 # ffffffc050427288 <syscall>
ffffffc050400968:	00001717          	auipc	a4,0x1
ffffffc05040096c:	84270713          	addi	a4,a4,-1982 # ffffffc0504011aa <screen_move_cursor>
ffffffc050400970:	fbd8                	sd	a4,176(a5)
ffffffc050400972:	00027797          	auipc	a5,0x27
ffffffc050400976:	91678793          	addi	a5,a5,-1770 # ffffffc050427288 <syscall>
ffffffc05040097a:	00001717          	auipc	a4,0x1
ffffffc05040097e:	90070713          	addi	a4,a4,-1792 # ffffffc05040127a <screen_reflush>
ffffffc050400982:	ffd8                	sd	a4,184(a5)
ffffffc050400984:	00027797          	auipc	a5,0x27
ffffffc050400988:	90478793          	addi	a5,a5,-1788 # ffffffc050427288 <syscall>
ffffffc05040098c:	00000717          	auipc	a4,0x0
ffffffc050400990:	91e70713          	addi	a4,a4,-1762 # ffffffc0504002aa <sbi_console_getchar>
ffffffc050400994:	e3f8                	sd	a4,192(a5)
ffffffc050400996:	00027797          	auipc	a5,0x27
ffffffc05040099a:	8f278793          	addi	a5,a5,-1806 # ffffffc050427288 <syscall>
ffffffc05040099e:	00001717          	auipc	a4,0x1
ffffffc0504009a2:	a2e70713          	addi	a4,a4,-1490 # ffffffc0504013cc <screen_serial_write>
ffffffc0504009a6:	e7f8                	sd	a4,200(a5)
ffffffc0504009a8:	00027797          	auipc	a5,0x27
ffffffc0504009ac:	8e078793          	addi	a5,a5,-1824 # ffffffc050427288 <syscall>
ffffffc0504009b0:	00000717          	auipc	a4,0x0
ffffffc0504009b4:	75c70713          	addi	a4,a4,1884 # ffffffc05040110c <screen_clear>
ffffffc0504009b8:	eff8                	sd	a4,216(a5)
ffffffc0504009ba:	00027797          	auipc	a5,0x27
ffffffc0504009be:	8ce78793          	addi	a5,a5,-1842 # ffffffc050427288 <syscall>
ffffffc0504009c2:	00002717          	auipc	a4,0x2
ffffffc0504009c6:	83c70713          	addi	a4,a4,-1988 # ffffffc0504021fe <get_time_base>
ffffffc0504009ca:	fbf8                	sd	a4,240(a5)
ffffffc0504009cc:	00027797          	auipc	a5,0x27
ffffffc0504009d0:	8bc78793          	addi	a5,a5,-1860 # ffffffc050427288 <syscall>
ffffffc0504009d4:	00001717          	auipc	a4,0x1
ffffffc0504009d8:	7b870713          	addi	a4,a4,1976 # ffffffc05040218c <get_ticks>
ffffffc0504009dc:	fff8                	sd	a4,248(a5)
ffffffc0504009de:	00027797          	auipc	a5,0x27
ffffffc0504009e2:	8aa78793          	addi	a5,a5,-1878 # ffffffc050427288 <syscall>
ffffffc0504009e6:	00001717          	auipc	a4,0x1
ffffffc0504009ea:	18270713          	addi	a4,a4,386 # ffffffc050401b68 <do_scheduler>
ffffffc0504009ee:	ff98                	sd	a4,56(a5)
ffffffc0504009f0:	00027797          	auipc	a5,0x27
ffffffc0504009f4:	89878793          	addi	a5,a5,-1896 # ffffffc050427288 <syscall>
ffffffc0504009f8:	00003717          	auipc	a4,0x3
ffffffc0504009fc:	d0670713          	addi	a4,a4,-762 # ffffffc0504036fe <mutex_get>
ffffffc050400a00:	fbb8                	sd	a4,112(a5)
ffffffc050400a02:	00027797          	auipc	a5,0x27
ffffffc050400a06:	88678793          	addi	a5,a5,-1914 # ffffffc050427288 <syscall>
ffffffc050400a0a:	00003717          	auipc	a4,0x3
ffffffc050400a0e:	d8870713          	addi	a4,a4,-632 # ffffffc050403792 <mutex_op>
ffffffc050400a12:	ffb8                	sd	a4,120(a5)
ffffffc050400a14:	00027797          	auipc	a5,0x27
ffffffc050400a18:	87478793          	addi	a5,a5,-1932 # ffffffc050427288 <syscall>
ffffffc050400a1c:	00001717          	auipc	a4,0x1
ffffffc050400a20:	78e70713          	addi	a4,a4,1934 # ffffffc0504021aa <get_wall_time>
ffffffc050400a24:	e3d8                	sd	a4,128(a5)
ffffffc050400a26:	00027797          	auipc	a5,0x27
ffffffc050400a2a:	86278793          	addi	a5,a5,-1950 # ffffffc050427288 <syscall>
ffffffc050400a2e:	00001717          	auipc	a4,0x1
ffffffc050400a32:	36a70713          	addi	a4,a4,874 # ffffffc050401d98 <do_kill>
ffffffc050400a36:	ef98                	sd	a4,24(a5)
ffffffc050400a38:	00027797          	auipc	a5,0x27
ffffffc050400a3c:	85078793          	addi	a5,a5,-1968 # ffffffc050427288 <syscall>
ffffffc050400a40:	00001717          	auipc	a4,0x1
ffffffc050400a44:	61670713          	addi	a4,a4,1558 # ffffffc050402056 <do_process_show>
ffffffc050400a48:	f798                	sd	a4,40(a5)
ffffffc050400a4a:	00027797          	auipc	a5,0x27
ffffffc050400a4e:	83e78793          	addi	a5,a5,-1986 # ffffffc050427288 <syscall>
ffffffc050400a52:	00001717          	auipc	a4,0x1
ffffffc050400a56:	47870713          	addi	a4,a4,1144 # ffffffc050401eca <do_getpid>
ffffffc050400a5a:	fb98                	sd	a4,48(a5)
ffffffc050400a5c:	00027797          	auipc	a5,0x27
ffffffc050400a60:	82c78793          	addi	a5,a5,-2004 # ffffffc050427288 <syscall>
ffffffc050400a64:	00001717          	auipc	a4,0x1
ffffffc050400a68:	48070713          	addi	a4,a4,1152 # ffffffc050401ee4 <do_waitpid>
ffffffc050400a6c:	f398                	sd	a4,32(a5)
ffffffc050400a6e:	00027797          	auipc	a5,0x27
ffffffc050400a72:	81a78793          	addi	a5,a5,-2022 # ffffffc050427288 <syscall>
ffffffc050400a76:	00001717          	auipc	a4,0x1
ffffffc050400a7a:	50e70713          	addi	a4,a4,1294 # ffffffc050401f84 <do_exit>
ffffffc050400a7e:	e798                	sd	a4,8(a5)
ffffffc050400a80:	00027797          	auipc	a5,0x27
ffffffc050400a84:	80878793          	addi	a5,a5,-2040 # ffffffc050427288 <syscall>
ffffffc050400a88:	00003717          	auipc	a4,0x3
ffffffc050400a8c:	fce70713          	addi	a4,a4,-50 # ffffffc050403a56 <semaphore_get>
ffffffc050400a90:	10e7bc23          	sd	a4,280(a5)
ffffffc050400a94:	00026797          	auipc	a5,0x26
ffffffc050400a98:	7f478793          	addi	a5,a5,2036 # ffffffc050427288 <syscall>
ffffffc050400a9c:	00003717          	auipc	a4,0x3
ffffffc050400aa0:	f7c70713          	addi	a4,a4,-132 # ffffffc050403a18 <semaphore_init>
ffffffc050400aa4:	12e7b023          	sd	a4,288(a5)
ffffffc050400aa8:	00026797          	auipc	a5,0x26
ffffffc050400aac:	7e078793          	addi	a5,a5,2016 # ffffffc050427288 <syscall>
ffffffc050400ab0:	00003717          	auipc	a4,0x3
ffffffc050400ab4:	01870713          	addi	a4,a4,24 # ffffffc050403ac8 <semaphore_op>
ffffffc050400ab8:	12e7b423          	sd	a4,296(a5)
ffffffc050400abc:	00026797          	auipc	a5,0x26
ffffffc050400ac0:	7cc78793          	addi	a5,a5,1996 # ffffffc050427288 <syscall>
ffffffc050400ac4:	00003717          	auipc	a4,0x3
ffffffc050400ac8:	1ee70713          	addi	a4,a4,494 # ffffffc050403cb2 <barrier_get>
ffffffc050400acc:	12e7bc23          	sd	a4,312(a5)
ffffffc050400ad0:	00026797          	auipc	a5,0x26
ffffffc050400ad4:	7b878793          	addi	a5,a5,1976 # ffffffc050427288 <syscall>
ffffffc050400ad8:	00003717          	auipc	a4,0x3
ffffffc050400adc:	19c70713          	addi	a4,a4,412 # ffffffc050403c74 <barrier_init>
ffffffc050400ae0:	14e7b023          	sd	a4,320(a5)
ffffffc050400ae4:	00026797          	auipc	a5,0x26
ffffffc050400ae8:	7a478793          	addi	a5,a5,1956 # ffffffc050427288 <syscall>
ffffffc050400aec:	00003717          	auipc	a4,0x3
ffffffc050400af0:	23870713          	addi	a4,a4,568 # ffffffc050403d24 <barrier_op>
ffffffc050400af4:	14e7b423          	sd	a4,328(a5)
ffffffc050400af8:	00026797          	auipc	a5,0x26
ffffffc050400afc:	79078793          	addi	a5,a5,1936 # ffffffc050427288 <syscall>
ffffffc050400b00:	00003717          	auipc	a4,0x3
ffffffc050400b04:	28c70713          	addi	a4,a4,652 # ffffffc050403d8c <do_mbox_open>
ffffffc050400b08:	14e7b823          	sd	a4,336(a5)
ffffffc050400b0c:	00026797          	auipc	a5,0x26
ffffffc050400b10:	77c78793          	addi	a5,a5,1916 # ffffffc050427288 <syscall>
ffffffc050400b14:	00003717          	auipc	a4,0x3
ffffffc050400b18:	41a70713          	addi	a4,a4,1050 # ffffffc050403f2e <do_mbox_close>
ffffffc050400b1c:	14e7bc23          	sd	a4,344(a5)
ffffffc050400b20:	00026797          	auipc	a5,0x26
ffffffc050400b24:	76878793          	addi	a5,a5,1896 # ffffffc050427288 <syscall>
ffffffc050400b28:	00003717          	auipc	a4,0x3
ffffffc050400b2c:	43470713          	addi	a4,a4,1076 # ffffffc050403f5c <do_mbox_send>
ffffffc050400b30:	16e7b023          	sd	a4,352(a5)
ffffffc050400b34:	00026797          	auipc	a5,0x26
ffffffc050400b38:	75478793          	addi	a5,a5,1876 # ffffffc050427288 <syscall>
ffffffc050400b3c:	00003717          	auipc	a4,0x3
ffffffc050400b40:	58670713          	addi	a4,a4,1414 # ffffffc0504040c2 <do_mbox_recv>
ffffffc050400b44:	16e7b423          	sd	a4,360(a5)
ffffffc050400b48:	00026797          	auipc	a5,0x26
ffffffc050400b4c:	74078793          	addi	a5,a5,1856 # ffffffc050427288 <syscall>
ffffffc050400b50:	00001717          	auipc	a4,0x1
ffffffc050400b54:	cfe70713          	addi	a4,a4,-770 # ffffffc05040184e <do_exec>
ffffffc050400b58:	18e7b023          	sd	a4,384(a5)
ffffffc050400b5c:	00026797          	auipc	a5,0x26
ffffffc050400b60:	72c78793          	addi	a5,a5,1836 # ffffffc050427288 <syscall>
ffffffc050400b64:	00001717          	auipc	a4,0x1
ffffffc050400b68:	5c470713          	addi	a4,a4,1476 # ffffffc050402128 <do_ls>
ffffffc050400b6c:	18e7b423          	sd	a4,392(a5)
ffffffc050400b70:	0001                	nop
ffffffc050400b72:	6462                	ld	s0,24(sp)
ffffffc050400b74:	6105                	addi	sp,sp,32
ffffffc050400b76:	8082                	ret

ffffffc050400b78 <main>:
ffffffc050400b78:	1141                	addi	sp,sp,-16
ffffffc050400b7a:	e406                	sd	ra,8(sp)
ffffffc050400b7c:	e022                	sd	s0,0(sp)
ffffffc050400b7e:	0800                	addi	s0,sp,16
ffffffc050400b80:	cd3ff0ef          	jal	ra,ffffffc050400852 <cancel_map>
ffffffc050400b84:	b29ff0ef          	jal	ra,ffffffc0504006ac <init_shell>
ffffffc050400b88:	00003517          	auipc	a0,0x3
ffffffc050400b8c:	7d850513          	addi	a0,a0,2008 # ffffffc050404360 <get_elf_file+0xc0>
ffffffc050400b90:	0cf020ef          	jal	ra,ffffffc05040345e <printk>
ffffffc050400b94:	4501                	li	a0,0
ffffffc050400b96:	f52ff0ef          	jal	ra,ffffffc0504002e8 <sbi_read_fdt>
ffffffc050400b9a:	87aa                	mv	a5,a0
ffffffc050400b9c:	0007871b          	sext.w	a4,a5
ffffffc050400ba0:	83018793          	addi	a5,gp,-2000 # ffffffc050423ce8 <time_base>
ffffffc050400ba4:	c398                	sw	a4,0(a5)
ffffffc050400ba6:	16c000ef          	jal	ra,ffffffc050400d12 <init_exception>
ffffffc050400baa:	00003517          	auipc	a0,0x3
ffffffc050400bae:	7e650513          	addi	a0,a0,2022 # ffffffc050404390 <get_elf_file+0xf0>
ffffffc050400bb2:	0ad020ef          	jal	ra,ffffffc05040345e <printk>
ffffffc050400bb6:	d47ff0ef          	jal	ra,ffffffc0504008fc <init_syscall>
ffffffc050400bba:	00004517          	auipc	a0,0x4
ffffffc050400bbe:	81650513          	addi	a0,a0,-2026 # ffffffc0504043d0 <get_elf_file+0x130>
ffffffc050400bc2:	09d020ef          	jal	ra,ffffffc05040345e <printk>
ffffffc050400bc6:	52c000ef          	jal	ra,ffffffc0504010f2 <init_screen>
ffffffc050400bca:	00004517          	auipc	a0,0x4
ffffffc050400bce:	83e50513          	addi	a0,a0,-1986 # ffffffc050404408 <get_elf_file+0x168>
ffffffc050400bd2:	08d020ef          	jal	ra,ffffffc05040345e <printk>
ffffffc050400bd6:	5b6010ef          	jal	ra,ffffffc05040218c <get_ticks>
ffffffc050400bda:	872a                	mv	a4,a0
ffffffc050400bdc:	83018793          	addi	a5,gp,-2000 # ffffffc050423ce8 <time_base>
ffffffc050400be0:	439c                	lw	a5,0(a5)
ffffffc050400be2:	86be                	mv	a3,a5
ffffffc050400be4:	3e800793          	li	a5,1000
ffffffc050400be8:	02f6d7bb          	divuw	a5,a3,a5
ffffffc050400bec:	2781                	sext.w	a5,a5
ffffffc050400bee:	1782                	slli	a5,a5,0x20
ffffffc050400bf0:	9381                	srli	a5,a5,0x20
ffffffc050400bf2:	97ba                	add	a5,a5,a4
ffffffc050400bf4:	853e                	mv	a0,a5
ffffffc050400bf6:	ed2ff0ef          	jal	ra,ffffffc0504002c8 <sbi_set_timer>
ffffffc050400bfa:	cc2ff0ef          	jal	ra,ffffffc0504000bc <enable_interrupt>
ffffffc050400bfe:	a001                	j	ffffffc050400bfe <main+0x86>

ffffffc050400c00 <_panic>:
ffffffc050400c00:	7179                	addi	sp,sp,-48
ffffffc050400c02:	f406                	sd	ra,40(sp)
ffffffc050400c04:	f022                	sd	s0,32(sp)
ffffffc050400c06:	1800                	addi	s0,sp,48
ffffffc050400c08:	fea43423          	sd	a0,-24(s0)
ffffffc050400c0c:	87ae                	mv	a5,a1
ffffffc050400c0e:	fcc43c23          	sd	a2,-40(s0)
ffffffc050400c12:	fef42223          	sw	a5,-28(s0)
ffffffc050400c16:	fe442783          	lw	a5,-28(s0)
ffffffc050400c1a:	86be                	mv	a3,a5
ffffffc050400c1c:	fe843603          	ld	a2,-24(s0)
ffffffc050400c20:	fd843583          	ld	a1,-40(s0)
ffffffc050400c24:	00004517          	auipc	a0,0x4
ffffffc050400c28:	91450513          	addi	a0,a0,-1772 # ffffffc050404538 <get_elf_file+0x298>
ffffffc050400c2c:	033020ef          	jal	ra,ffffffc05040345e <printk>
ffffffc050400c30:	a001                	j	ffffffc050400c30 <_panic+0x30>

ffffffc050400c32 <sbi_set_timer>:
ffffffc050400c32:	1101                	addi	sp,sp,-32
ffffffc050400c34:	ec22                	sd	s0,24(sp)
ffffffc050400c36:	1000                	addi	s0,sp,32
ffffffc050400c38:	fea43423          	sd	a0,-24(s0)
ffffffc050400c3c:	fe843503          	ld	a0,-24(s0)
ffffffc050400c40:	4581                	li	a1,0
ffffffc050400c42:	4601                	li	a2,0
ffffffc050400c44:	4881                	li	a7,0
ffffffc050400c46:	00000073          	ecall
ffffffc050400c4a:	0001                	nop
ffffffc050400c4c:	6462                	ld	s0,24(sp)
ffffffc050400c4e:	6105                	addi	sp,sp,32
ffffffc050400c50:	8082                	ret

ffffffc050400c52 <reset_irq_timer>:
ffffffc050400c52:	1101                	addi	sp,sp,-32
ffffffc050400c54:	ec06                	sd	ra,24(sp)
ffffffc050400c56:	e822                	sd	s0,16(sp)
ffffffc050400c58:	e426                	sd	s1,8(sp)
ffffffc050400c5a:	1000                	addi	s0,sp,32
ffffffc050400c5c:	61e000ef          	jal	ra,ffffffc05040127a <screen_reflush>
ffffffc050400c60:	636010ef          	jal	ra,ffffffc050402296 <check_timer>
ffffffc050400c64:	528010ef          	jal	ra,ffffffc05040218c <get_ticks>
ffffffc050400c68:	84aa                	mv	s1,a0
ffffffc050400c6a:	594010ef          	jal	ra,ffffffc0504021fe <get_time_base>
ffffffc050400c6e:	872a                	mv	a4,a0
ffffffc050400c70:	3e800793          	li	a5,1000
ffffffc050400c74:	02f757b3          	divu	a5,a4,a5
ffffffc050400c78:	97a6                	add	a5,a5,s1
ffffffc050400c7a:	853e                	mv	a0,a5
ffffffc050400c7c:	fb7ff0ef          	jal	ra,ffffffc050400c32 <sbi_set_timer>
ffffffc050400c80:	6e9000ef          	jal	ra,ffffffc050401b68 <do_scheduler>
ffffffc050400c84:	0001                	nop
ffffffc050400c86:	60e2                	ld	ra,24(sp)
ffffffc050400c88:	6442                	ld	s0,16(sp)
ffffffc050400c8a:	64a2                	ld	s1,8(sp)
ffffffc050400c8c:	6105                	addi	sp,sp,32
ffffffc050400c8e:	8082                	ret

ffffffc050400c90 <interrupt_helper>:
ffffffc050400c90:	7139                	addi	sp,sp,-64
ffffffc050400c92:	fc06                	sd	ra,56(sp)
ffffffc050400c94:	f822                	sd	s0,48(sp)
ffffffc050400c96:	0080                	addi	s0,sp,64
ffffffc050400c98:	fca43c23          	sd	a0,-40(s0)
ffffffc050400c9c:	fcb43823          	sd	a1,-48(s0)
ffffffc050400ca0:	fcc43423          	sd	a2,-56(s0)
ffffffc050400ca4:	fc843783          	ld	a5,-56(s0)
ffffffc050400ca8:	0007d763          	bgez	a5,ffffffc050400cb6 <interrupt_helper+0x26>
ffffffc050400cac:	00025797          	auipc	a5,0x25
ffffffc050400cb0:	7ec78793          	addi	a5,a5,2028 # ffffffc050426498 <irq_table>
ffffffc050400cb4:	a029                	j	ffffffc050400cbe <interrupt_helper+0x2e>
ffffffc050400cb6:	00025797          	auipc	a5,0x25
ffffffc050400cba:	75a78793          	addi	a5,a5,1882 # ffffffc050426410 <exc_table>
ffffffc050400cbe:	fef43423          	sd	a5,-24(s0)
ffffffc050400cc2:	fc843783          	ld	a5,-56(s0)
ffffffc050400cc6:	fef43023          	sd	a5,-32(s0)
ffffffc050400cca:	fe043783          	ld	a5,-32(s0)
ffffffc050400cce:	078e                	slli	a5,a5,0x3
ffffffc050400cd0:	fe843703          	ld	a4,-24(s0)
ffffffc050400cd4:	97ba                	add	a5,a5,a4
ffffffc050400cd6:	639c                	ld	a5,0(a5)
ffffffc050400cd8:	fc843603          	ld	a2,-56(s0)
ffffffc050400cdc:	fd043583          	ld	a1,-48(s0)
ffffffc050400ce0:	fd843503          	ld	a0,-40(s0)
ffffffc050400ce4:	9782                	jalr	a5
ffffffc050400ce6:	0001                	nop
ffffffc050400ce8:	70e2                	ld	ra,56(sp)
ffffffc050400cea:	7442                	ld	s0,48(sp)
ffffffc050400cec:	6121                	addi	sp,sp,64
ffffffc050400cee:	8082                	ret

ffffffc050400cf0 <handle_int>:
ffffffc050400cf0:	7179                	addi	sp,sp,-48
ffffffc050400cf2:	f406                	sd	ra,40(sp)
ffffffc050400cf4:	f022                	sd	s0,32(sp)
ffffffc050400cf6:	1800                	addi	s0,sp,48
ffffffc050400cf8:	fea43423          	sd	a0,-24(s0)
ffffffc050400cfc:	feb43023          	sd	a1,-32(s0)
ffffffc050400d00:	fcc43c23          	sd	a2,-40(s0)
ffffffc050400d04:	f4fff0ef          	jal	ra,ffffffc050400c52 <reset_irq_timer>
ffffffc050400d08:	0001                	nop
ffffffc050400d0a:	70a2                	ld	ra,40(sp)
ffffffc050400d0c:	7402                	ld	s0,32(sp)
ffffffc050400d0e:	6145                	addi	sp,sp,48
ffffffc050400d10:	8082                	ret

ffffffc050400d12 <init_exception>:
ffffffc050400d12:	1101                	addi	sp,sp,-32
ffffffc050400d14:	ec06                	sd	ra,24(sp)
ffffffc050400d16:	e822                	sd	s0,16(sp)
ffffffc050400d18:	1000                	addi	s0,sp,32
ffffffc050400d1a:	fe042623          	sw	zero,-20(s0)
ffffffc050400d1e:	a01d                	j	ffffffc050400d44 <init_exception+0x32>
ffffffc050400d20:	00025717          	auipc	a4,0x25
ffffffc050400d24:	77870713          	addi	a4,a4,1912 # ffffffc050426498 <irq_table>
ffffffc050400d28:	fec42783          	lw	a5,-20(s0)
ffffffc050400d2c:	078e                	slli	a5,a5,0x3
ffffffc050400d2e:	97ba                	add	a5,a5,a4
ffffffc050400d30:	00000717          	auipc	a4,0x0
ffffffc050400d34:	08c70713          	addi	a4,a4,140 # ffffffc050400dbc <handle_other>
ffffffc050400d38:	e398                	sd	a4,0(a5)
ffffffc050400d3a:	fec42783          	lw	a5,-20(s0)
ffffffc050400d3e:	2785                	addiw	a5,a5,1
ffffffc050400d40:	fef42623          	sw	a5,-20(s0)
ffffffc050400d44:	fec42783          	lw	a5,-20(s0)
ffffffc050400d48:	0007871b          	sext.w	a4,a5
ffffffc050400d4c:	47ad                	li	a5,11
ffffffc050400d4e:	fce7d9e3          	bge	a5,a4,ffffffc050400d20 <init_exception+0xe>
ffffffc050400d52:	fe042623          	sw	zero,-20(s0)
ffffffc050400d56:	a01d                	j	ffffffc050400d7c <init_exception+0x6a>
ffffffc050400d58:	00025717          	auipc	a4,0x25
ffffffc050400d5c:	6b870713          	addi	a4,a4,1720 # ffffffc050426410 <exc_table>
ffffffc050400d60:	fec42783          	lw	a5,-20(s0)
ffffffc050400d64:	078e                	slli	a5,a5,0x3
ffffffc050400d66:	97ba                	add	a5,a5,a4
ffffffc050400d68:	00000717          	auipc	a4,0x0
ffffffc050400d6c:	05470713          	addi	a4,a4,84 # ffffffc050400dbc <handle_other>
ffffffc050400d70:	e398                	sd	a4,0(a5)
ffffffc050400d72:	fec42783          	lw	a5,-20(s0)
ffffffc050400d76:	2785                	addiw	a5,a5,1
ffffffc050400d78:	fef42623          	sw	a5,-20(s0)
ffffffc050400d7c:	fec42783          	lw	a5,-20(s0)
ffffffc050400d80:	0007871b          	sext.w	a4,a5
ffffffc050400d84:	47bd                	li	a5,15
ffffffc050400d86:	fce7d9e3          	bge	a5,a4,ffffffc050400d58 <init_exception+0x46>
ffffffc050400d8a:	00025797          	auipc	a5,0x25
ffffffc050400d8e:	70e78793          	addi	a5,a5,1806 # ffffffc050426498 <irq_table>
ffffffc050400d92:	00000717          	auipc	a4,0x0
ffffffc050400d96:	f5e70713          	addi	a4,a4,-162 # ffffffc050400cf0 <handle_int>
ffffffc050400d9a:	f798                	sd	a4,40(a5)
ffffffc050400d9c:	00025797          	auipc	a5,0x25
ffffffc050400da0:	67478793          	addi	a5,a5,1652 # ffffffc050426410 <exc_table>
ffffffc050400da4:	00002717          	auipc	a4,0x2
ffffffc050400da8:	b4470713          	addi	a4,a4,-1212 # ffffffc0504028e8 <handle_syscall>
ffffffc050400dac:	e3b8                	sd	a4,64(a5)
ffffffc050400dae:	aaeff0ef          	jal	ra,ffffffc05040005c <setup_exception>
ffffffc050400db2:	0001                	nop
ffffffc050400db4:	60e2                	ld	ra,24(sp)
ffffffc050400db6:	6442                	ld	s0,16(sp)
ffffffc050400db8:	6105                	addi	sp,sp,32
ffffffc050400dba:	8082                	ret

ffffffc050400dbc <handle_other>:
ffffffc050400dbc:	710d                	addi	sp,sp,-352
ffffffc050400dbe:	ee86                	sd	ra,344(sp)
ffffffc050400dc0:	eaa2                	sd	s0,336(sp)
ffffffc050400dc2:	1280                	addi	s0,sp,352
ffffffc050400dc4:	eaa43c23          	sd	a0,-328(s0)
ffffffc050400dc8:	eab43823          	sd	a1,-336(s0)
ffffffc050400dcc:	eac43423          	sd	a2,-344(s0)
ffffffc050400dd0:	00004717          	auipc	a4,0x4
ffffffc050400dd4:	85070713          	addi	a4,a4,-1968 # ffffffc050404620 <get_elf_file+0x380>
ffffffc050400dd8:	ec840793          	addi	a5,s0,-312
ffffffc050400ddc:	86ba                	mv	a3,a4
ffffffc050400dde:	10000713          	li	a4,256
ffffffc050400de2:	863a                	mv	a2,a4
ffffffc050400de4:	85b6                	mv	a1,a3
ffffffc050400de6:	853e                	mv	a0,a5
ffffffc050400de8:	371010ef          	jal	ra,ffffffc050402958 <memcpy>
ffffffc050400dec:	fe042623          	sw	zero,-20(s0)
ffffffc050400df0:	a061                	j	ffffffc050400e78 <handle_other+0xbc>
ffffffc050400df2:	fe042423          	sw	zero,-24(s0)
ffffffc050400df6:	a0a9                	j	ffffffc050400e40 <handle_other+0x84>
ffffffc050400df8:	fec42703          	lw	a4,-20(s0)
ffffffc050400dfc:	fe842783          	lw	a5,-24(s0)
ffffffc050400e00:	9fb9                	addw	a5,a5,a4
ffffffc050400e02:	2781                	sext.w	a5,a5
ffffffc050400e04:	078e                	slli	a5,a5,0x3
ffffffc050400e06:	ff040713          	addi	a4,s0,-16
ffffffc050400e0a:	97ba                	add	a5,a5,a4
ffffffc050400e0c:	ed87b683          	ld	a3,-296(a5)
ffffffc050400e10:	fec42703          	lw	a4,-20(s0)
ffffffc050400e14:	fe842783          	lw	a5,-24(s0)
ffffffc050400e18:	9fb9                	addw	a5,a5,a4
ffffffc050400e1a:	2781                	sext.w	a5,a5
ffffffc050400e1c:	eb843703          	ld	a4,-328(s0)
ffffffc050400e20:	078e                	slli	a5,a5,0x3
ffffffc050400e22:	97ba                	add	a5,a5,a4
ffffffc050400e24:	639c                	ld	a5,0(a5)
ffffffc050400e26:	863e                	mv	a2,a5
ffffffc050400e28:	85b6                	mv	a1,a3
ffffffc050400e2a:	00003517          	auipc	a0,0x3
ffffffc050400e2e:	73650513          	addi	a0,a0,1846 # ffffffc050404560 <get_elf_file+0x2c0>
ffffffc050400e32:	62c020ef          	jal	ra,ffffffc05040345e <printk>
ffffffc050400e36:	fe842783          	lw	a5,-24(s0)
ffffffc050400e3a:	2785                	addiw	a5,a5,1
ffffffc050400e3c:	fef42423          	sw	a5,-24(s0)
ffffffc050400e40:	fe842783          	lw	a5,-24(s0)
ffffffc050400e44:	0007871b          	sext.w	a4,a5
ffffffc050400e48:	4789                	li	a5,2
ffffffc050400e4a:	00e7cc63          	blt	a5,a4,ffffffc050400e62 <handle_other+0xa6>
ffffffc050400e4e:	fec42703          	lw	a4,-20(s0)
ffffffc050400e52:	fe842783          	lw	a5,-24(s0)
ffffffc050400e56:	9fb9                	addw	a5,a5,a4
ffffffc050400e58:	2781                	sext.w	a5,a5
ffffffc050400e5a:	873e                	mv	a4,a5
ffffffc050400e5c:	47fd                	li	a5,31
ffffffc050400e5e:	f8e7dde3          	bge	a5,a4,ffffffc050400df8 <handle_other+0x3c>
ffffffc050400e62:	00003517          	auipc	a0,0x3
ffffffc050400e66:	70e50513          	addi	a0,a0,1806 # ffffffc050404570 <get_elf_file+0x2d0>
ffffffc050400e6a:	5f4020ef          	jal	ra,ffffffc05040345e <printk>
ffffffc050400e6e:	fec42783          	lw	a5,-20(s0)
ffffffc050400e72:	278d                	addiw	a5,a5,3
ffffffc050400e74:	fef42623          	sw	a5,-20(s0)
ffffffc050400e78:	fec42783          	lw	a5,-20(s0)
ffffffc050400e7c:	0007871b          	sext.w	a4,a5
ffffffc050400e80:	47fd                	li	a5,31
ffffffc050400e82:	f6e7d8e3          	bge	a5,a4,ffffffc050400df2 <handle_other+0x36>
ffffffc050400e86:	eb843783          	ld	a5,-328(s0)
ffffffc050400e8a:	1007b703          	ld	a4,256(a5)
ffffffc050400e8e:	eb843783          	ld	a5,-328(s0)
ffffffc050400e92:	1107b603          	ld	a2,272(a5)
ffffffc050400e96:	eb843783          	ld	a5,-328(s0)
ffffffc050400e9a:	1187b783          	ld	a5,280(a5)
ffffffc050400e9e:	86be                	mv	a3,a5
ffffffc050400ea0:	85ba                	mv	a1,a4
ffffffc050400ea2:	00003517          	auipc	a0,0x3
ffffffc050400ea6:	6d650513          	addi	a0,a0,1750 # ffffffc050404578 <get_elf_file+0x2d8>
ffffffc050400eaa:	5b4020ef          	jal	ra,ffffffc05040345e <printk>
ffffffc050400eae:	ea843603          	ld	a2,-344(s0)
ffffffc050400eb2:	eb043583          	ld	a1,-336(s0)
ffffffc050400eb6:	00003517          	auipc	a0,0x3
ffffffc050400eba:	6f250513          	addi	a0,a0,1778 # ffffffc0504045a8 <get_elf_file+0x308>
ffffffc050400ebe:	5a0020ef          	jal	ra,ffffffc05040345e <printk>
ffffffc050400ec2:	eb843783          	ld	a5,-328(s0)
ffffffc050400ec6:	1087b783          	ld	a5,264(a5)
ffffffc050400eca:	85be                	mv	a1,a5
ffffffc050400ecc:	00003517          	auipc	a0,0x3
ffffffc050400ed0:	6fc50513          	addi	a0,a0,1788 # ffffffc0504045c8 <get_elf_file+0x328>
ffffffc050400ed4:	58a020ef          	jal	ra,ffffffc05040345e <printk>
ffffffc050400ed8:	eb843783          	ld	a5,-328(s0)
ffffffc050400edc:	63bc                	ld	a5,64(a5)
ffffffc050400ede:	fef43023          	sd	a5,-32(s0)
ffffffc050400ee2:	eb843783          	ld	a5,-328(s0)
ffffffc050400ee6:	6b9c                	ld	a5,16(a5)
ffffffc050400ee8:	fcf43c23          	sd	a5,-40(s0)
ffffffc050400eec:	00003517          	auipc	a0,0x3
ffffffc050400ef0:	6ec50513          	addi	a0,a0,1772 # ffffffc0504045d8 <get_elf_file+0x338>
ffffffc050400ef4:	56a020ef          	jal	ra,ffffffc05040345e <printk>
ffffffc050400ef8:	eb843783          	ld	a5,-328(s0)
ffffffc050400efc:	679c                	ld	a5,8(a5)
ffffffc050400efe:	17f1                	addi	a5,a5,-4
ffffffc050400f00:	fe043683          	ld	a3,-32(s0)
ffffffc050400f04:	fd843603          	ld	a2,-40(s0)
ffffffc050400f08:	85be                	mv	a1,a5
ffffffc050400f0a:	00003517          	auipc	a0,0x3
ffffffc050400f0e:	6de50513          	addi	a0,a0,1758 # ffffffc0504045e8 <get_elf_file+0x348>
ffffffc050400f12:	54c020ef          	jal	ra,ffffffc05040345e <printk>
ffffffc050400f16:	a83d                	j	ffffffc050400f54 <handle_other+0x198>
ffffffc050400f18:	fe043783          	ld	a5,-32(s0)
ffffffc050400f1c:	17e1                	addi	a5,a5,-8
ffffffc050400f1e:	639c                	ld	a5,0(a5)
ffffffc050400f20:	fcf43823          	sd	a5,-48(s0)
ffffffc050400f24:	fe043783          	ld	a5,-32(s0)
ffffffc050400f28:	17c1                	addi	a5,a5,-16
ffffffc050400f2a:	639c                	ld	a5,0(a5)
ffffffc050400f2c:	fcf43423          	sd	a5,-56(s0)
ffffffc050400f30:	fd043783          	ld	a5,-48(s0)
ffffffc050400f34:	17f1                	addi	a5,a5,-4
ffffffc050400f36:	fc843683          	ld	a3,-56(s0)
ffffffc050400f3a:	fe043603          	ld	a2,-32(s0)
ffffffc050400f3e:	85be                	mv	a1,a5
ffffffc050400f40:	00003517          	auipc	a0,0x3
ffffffc050400f44:	6a850513          	addi	a0,a0,1704 # ffffffc0504045e8 <get_elf_file+0x348>
ffffffc050400f48:	516020ef          	jal	ra,ffffffc05040345e <printk>
ffffffc050400f4c:	fc843783          	ld	a5,-56(s0)
ffffffc050400f50:	fef43023          	sd	a5,-32(s0)
ffffffc050400f54:	fe043703          	ld	a4,-32(s0)
ffffffc050400f58:	67c1                	lui	a5,0x10
ffffffc050400f5a:	fae7efe3          	bltu	a5,a4,ffffffc050400f18 <handle_other+0x15c>
ffffffc050400f5e:	00003617          	auipc	a2,0x3
ffffffc050400f62:	7c260613          	addi	a2,a2,1986 # ffffffc050404720 <__FUNCTION__.1462>
ffffffc050400f66:	05500593          	li	a1,85
ffffffc050400f6a:	00003517          	auipc	a0,0x3
ffffffc050400f6e:	69e50513          	addi	a0,a0,1694 # ffffffc050404608 <get_elf_file+0x368>
ffffffc050400f72:	c8fff0ef          	jal	ra,ffffffc050400c00 <_panic>
ffffffc050400f76:	0001                	nop
ffffffc050400f78:	60f6                	ld	ra,344(sp)
ffffffc050400f7a:	6456                	ld	s0,336(sp)
ffffffc050400f7c:	6135                	addi	sp,sp,352
ffffffc050400f7e:	8082                	ret

ffffffc050400f80 <vt100_move_cursor>:
ffffffc050400f80:	1101                	addi	sp,sp,-32
ffffffc050400f82:	ec06                	sd	ra,24(sp)
ffffffc050400f84:	e822                	sd	s0,16(sp)
ffffffc050400f86:	1000                	addi	s0,sp,32
ffffffc050400f88:	87aa                	mv	a5,a0
ffffffc050400f8a:	872e                	mv	a4,a1
ffffffc050400f8c:	fef42623          	sw	a5,-20(s0)
ffffffc050400f90:	87ba                	mv	a5,a4
ffffffc050400f92:	fef42423          	sw	a5,-24(s0)
ffffffc050400f96:	90eff0ef          	jal	ra,ffffffc0504000a4 <disable_preempt>
ffffffc050400f9a:	fec42703          	lw	a4,-20(s0)
ffffffc050400f9e:	fe842783          	lw	a5,-24(s0)
ffffffc050400fa2:	86ba                	mv	a3,a4
ffffffc050400fa4:	863e                	mv	a2,a5
ffffffc050400fa6:	45ed                	li	a1,27
ffffffc050400fa8:	00003517          	auipc	a0,0x3
ffffffc050400fac:	78850513          	addi	a0,a0,1928 # ffffffc050404730 <__FUNCTION__.1462+0x10>
ffffffc050400fb0:	4ae020ef          	jal	ra,ffffffc05040345e <printk>
ffffffc050400fb4:	00025797          	auipc	a5,0x25
ffffffc050400fb8:	54c78793          	addi	a5,a5,1356 # ffffffc050426500 <current_running>
ffffffc050400fbc:	639c                	ld	a5,0(a5)
ffffffc050400fbe:	fec42703          	lw	a4,-20(s0)
ffffffc050400fc2:	cfb8                	sw	a4,88(a5)
ffffffc050400fc4:	00025797          	auipc	a5,0x25
ffffffc050400fc8:	53c78793          	addi	a5,a5,1340 # ffffffc050426500 <current_running>
ffffffc050400fcc:	639c                	ld	a5,0(a5)
ffffffc050400fce:	fe842703          	lw	a4,-24(s0)
ffffffc050400fd2:	cff8                	sw	a4,92(a5)
ffffffc050400fd4:	8a8ff0ef          	jal	ra,ffffffc05040007c <enable_preempt>
ffffffc050400fd8:	0001                	nop
ffffffc050400fda:	60e2                	ld	ra,24(sp)
ffffffc050400fdc:	6442                	ld	s0,16(sp)
ffffffc050400fde:	6105                	addi	sp,sp,32
ffffffc050400fe0:	8082                	ret

ffffffc050400fe2 <vt100_clear>:
ffffffc050400fe2:	1141                	addi	sp,sp,-16
ffffffc050400fe4:	e406                	sd	ra,8(sp)
ffffffc050400fe6:	e022                	sd	s0,0(sp)
ffffffc050400fe8:	0800                	addi	s0,sp,16
ffffffc050400fea:	45ed                	li	a1,27
ffffffc050400fec:	00003517          	auipc	a0,0x3
ffffffc050400ff0:	75450513          	addi	a0,a0,1876 # ffffffc050404740 <__FUNCTION__.1462+0x20>
ffffffc050400ff4:	46a020ef          	jal	ra,ffffffc05040345e <printk>
ffffffc050400ff8:	0001                	nop
ffffffc050400ffa:	60a2                	ld	ra,8(sp)
ffffffc050400ffc:	6402                	ld	s0,0(sp)
ffffffc050400ffe:	0141                	addi	sp,sp,16
ffffffc050401000:	8082                	ret

ffffffc050401002 <vt100_hidden_cursor>:
ffffffc050401002:	1141                	addi	sp,sp,-16
ffffffc050401004:	e406                	sd	ra,8(sp)
ffffffc050401006:	e022                	sd	s0,0(sp)
ffffffc050401008:	0800                	addi	s0,sp,16
ffffffc05040100a:	45ed                	li	a1,27
ffffffc05040100c:	00003517          	auipc	a0,0x3
ffffffc050401010:	73c50513          	addi	a0,a0,1852 # ffffffc050404748 <__FUNCTION__.1462+0x28>
ffffffc050401014:	44a020ef          	jal	ra,ffffffc05040345e <printk>
ffffffc050401018:	0001                	nop
ffffffc05040101a:	60a2                	ld	ra,8(sp)
ffffffc05040101c:	6402                	ld	s0,0(sp)
ffffffc05040101e:	0141                	addi	sp,sp,16
ffffffc050401020:	8082                	ret

ffffffc050401022 <screen_write_ch>:
ffffffc050401022:	1101                	addi	sp,sp,-32
ffffffc050401024:	ec22                	sd	s0,24(sp)
ffffffc050401026:	1000                	addi	s0,sp,32
ffffffc050401028:	87aa                	mv	a5,a0
ffffffc05040102a:	fef407a3          	sb	a5,-17(s0)
ffffffc05040102e:	fef44783          	lbu	a5,-17(s0)
ffffffc050401032:	0ff7f713          	andi	a4,a5,255
ffffffc050401036:	47a9                	li	a5,10
ffffffc050401038:	02f71663          	bne	a4,a5,ffffffc050401064 <screen_write_ch+0x42>
ffffffc05040103c:	00025797          	auipc	a5,0x25
ffffffc050401040:	4bc78793          	addi	a5,a5,1212 # ffffffc0504264f8 <screen_cursor_x>
ffffffc050401044:	4705                	li	a4,1
ffffffc050401046:	c398                	sw	a4,0(a5)
ffffffc050401048:	00025797          	auipc	a5,0x25
ffffffc05040104c:	4b478793          	addi	a5,a5,1204 # ffffffc0504264fc <screen_cursor_y>
ffffffc050401050:	439c                	lw	a5,0(a5)
ffffffc050401052:	2785                	addiw	a5,a5,1
ffffffc050401054:	0007871b          	sext.w	a4,a5
ffffffc050401058:	00025797          	auipc	a5,0x25
ffffffc05040105c:	4a478793          	addi	a5,a5,1188 # ffffffc0504264fc <screen_cursor_y>
ffffffc050401060:	c398                	sw	a4,0(a5)
ffffffc050401062:	a8b1                	j	ffffffc0504010be <screen_write_ch+0x9c>
ffffffc050401064:	00025797          	auipc	a5,0x25
ffffffc050401068:	49878793          	addi	a5,a5,1176 # ffffffc0504264fc <screen_cursor_y>
ffffffc05040106c:	439c                	lw	a5,0(a5)
ffffffc05040106e:	37fd                	addiw	a5,a5,-1
ffffffc050401070:	0007871b          	sext.w	a4,a5
ffffffc050401074:	06400793          	li	a5,100
ffffffc050401078:	02f707bb          	mulw	a5,a4,a5
ffffffc05040107c:	0007871b          	sext.w	a4,a5
ffffffc050401080:	00025797          	auipc	a5,0x25
ffffffc050401084:	47878793          	addi	a5,a5,1144 # ffffffc0504264f8 <screen_cursor_x>
ffffffc050401088:	439c                	lw	a5,0(a5)
ffffffc05040108a:	37fd                	addiw	a5,a5,-1
ffffffc05040108c:	2781                	sext.w	a5,a5
ffffffc05040108e:	9fb9                	addw	a5,a5,a4
ffffffc050401090:	2781                	sext.w	a5,a5
ffffffc050401092:	00023717          	auipc	a4,0x23
ffffffc050401096:	c5e70713          	addi	a4,a4,-930 # ffffffc050423cf0 <new_screen>
ffffffc05040109a:	97ba                	add	a5,a5,a4
ffffffc05040109c:	fef44703          	lbu	a4,-17(s0)
ffffffc0504010a0:	00e78023          	sb	a4,0(a5)
ffffffc0504010a4:	00025797          	auipc	a5,0x25
ffffffc0504010a8:	45478793          	addi	a5,a5,1108 # ffffffc0504264f8 <screen_cursor_x>
ffffffc0504010ac:	439c                	lw	a5,0(a5)
ffffffc0504010ae:	2785                	addiw	a5,a5,1
ffffffc0504010b0:	0007871b          	sext.w	a4,a5
ffffffc0504010b4:	00025797          	auipc	a5,0x25
ffffffc0504010b8:	44478793          	addi	a5,a5,1092 # ffffffc0504264f8 <screen_cursor_x>
ffffffc0504010bc:	c398                	sw	a4,0(a5)
ffffffc0504010be:	00025797          	auipc	a5,0x25
ffffffc0504010c2:	44278793          	addi	a5,a5,1090 # ffffffc050426500 <current_running>
ffffffc0504010c6:	639c                	ld	a5,0(a5)
ffffffc0504010c8:	00025717          	auipc	a4,0x25
ffffffc0504010cc:	43070713          	addi	a4,a4,1072 # ffffffc0504264f8 <screen_cursor_x>
ffffffc0504010d0:	4318                	lw	a4,0(a4)
ffffffc0504010d2:	cfb8                	sw	a4,88(a5)
ffffffc0504010d4:	00025797          	auipc	a5,0x25
ffffffc0504010d8:	42c78793          	addi	a5,a5,1068 # ffffffc050426500 <current_running>
ffffffc0504010dc:	639c                	ld	a5,0(a5)
ffffffc0504010de:	00025717          	auipc	a4,0x25
ffffffc0504010e2:	41e70713          	addi	a4,a4,1054 # ffffffc0504264fc <screen_cursor_y>
ffffffc0504010e6:	4318                	lw	a4,0(a4)
ffffffc0504010e8:	cff8                	sw	a4,92(a5)
ffffffc0504010ea:	0001                	nop
ffffffc0504010ec:	6462                	ld	s0,24(sp)
ffffffc0504010ee:	6105                	addi	sp,sp,32
ffffffc0504010f0:	8082                	ret

ffffffc0504010f2 <init_screen>:
ffffffc0504010f2:	1141                	addi	sp,sp,-16
ffffffc0504010f4:	e406                	sd	ra,8(sp)
ffffffc0504010f6:	e022                	sd	s0,0(sp)
ffffffc0504010f8:	0800                	addi	s0,sp,16
ffffffc0504010fa:	f09ff0ef          	jal	ra,ffffffc050401002 <vt100_hidden_cursor>
ffffffc0504010fe:	ee5ff0ef          	jal	ra,ffffffc050400fe2 <vt100_clear>
ffffffc050401102:	0001                	nop
ffffffc050401104:	60a2                	ld	ra,8(sp)
ffffffc050401106:	6402                	ld	s0,0(sp)
ffffffc050401108:	0141                	addi	sp,sp,16
ffffffc05040110a:	8082                	ret

ffffffc05040110c <screen_clear>:
ffffffc05040110c:	1101                	addi	sp,sp,-32
ffffffc05040110e:	ec06                	sd	ra,24(sp)
ffffffc050401110:	e822                	sd	s0,16(sp)
ffffffc050401112:	1000                	addi	s0,sp,32
ffffffc050401114:	f91fe0ef          	jal	ra,ffffffc0504000a4 <disable_preempt>
ffffffc050401118:	fe042623          	sw	zero,-20(s0)
ffffffc05040111c:	a891                	j	ffffffc050401170 <screen_clear+0x64>
ffffffc05040111e:	fe042423          	sw	zero,-24(s0)
ffffffc050401122:	a815                	j	ffffffc050401156 <screen_clear+0x4a>
ffffffc050401124:	fec42703          	lw	a4,-20(s0)
ffffffc050401128:	06400793          	li	a5,100
ffffffc05040112c:	02f707bb          	mulw	a5,a4,a5
ffffffc050401130:	2781                	sext.w	a5,a5
ffffffc050401132:	fe842703          	lw	a4,-24(s0)
ffffffc050401136:	9fb9                	addw	a5,a5,a4
ffffffc050401138:	2781                	sext.w	a5,a5
ffffffc05040113a:	00023717          	auipc	a4,0x23
ffffffc05040113e:	bb670713          	addi	a4,a4,-1098 # ffffffc050423cf0 <new_screen>
ffffffc050401142:	97ba                	add	a5,a5,a4
ffffffc050401144:	02000713          	li	a4,32
ffffffc050401148:	00e78023          	sb	a4,0(a5)
ffffffc05040114c:	fe842783          	lw	a5,-24(s0)
ffffffc050401150:	2785                	addiw	a5,a5,1
ffffffc050401152:	fef42423          	sw	a5,-24(s0)
ffffffc050401156:	fe842783          	lw	a5,-24(s0)
ffffffc05040115a:	0007871b          	sext.w	a4,a5
ffffffc05040115e:	06300793          	li	a5,99
ffffffc050401162:	fce7d1e3          	bge	a5,a4,ffffffc050401124 <screen_clear+0x18>
ffffffc050401166:	fec42783          	lw	a5,-20(s0)
ffffffc05040116a:	2785                	addiw	a5,a5,1
ffffffc05040116c:	fef42623          	sw	a5,-20(s0)
ffffffc050401170:	fec42783          	lw	a5,-20(s0)
ffffffc050401174:	0007871b          	sext.w	a4,a5
ffffffc050401178:	03100793          	li	a5,49
ffffffc05040117c:	fae7d1e3          	bge	a5,a4,ffffffc05040111e <screen_clear+0x12>
ffffffc050401180:	00025797          	auipc	a5,0x25
ffffffc050401184:	37878793          	addi	a5,a5,888 # ffffffc0504264f8 <screen_cursor_x>
ffffffc050401188:	4705                	li	a4,1
ffffffc05040118a:	c398                	sw	a4,0(a5)
ffffffc05040118c:	00025797          	auipc	a5,0x25
ffffffc050401190:	37078793          	addi	a5,a5,880 # ffffffc0504264fc <screen_cursor_y>
ffffffc050401194:	4705                	li	a4,1
ffffffc050401196:	c398                	sw	a4,0(a5)
ffffffc050401198:	0e2000ef          	jal	ra,ffffffc05040127a <screen_reflush>
ffffffc05040119c:	ee1fe0ef          	jal	ra,ffffffc05040007c <enable_preempt>
ffffffc0504011a0:	0001                	nop
ffffffc0504011a2:	60e2                	ld	ra,24(sp)
ffffffc0504011a4:	6442                	ld	s0,16(sp)
ffffffc0504011a6:	6105                	addi	sp,sp,32
ffffffc0504011a8:	8082                	ret

ffffffc0504011aa <screen_move_cursor>:
ffffffc0504011aa:	1101                	addi	sp,sp,-32
ffffffc0504011ac:	ec06                	sd	ra,24(sp)
ffffffc0504011ae:	e822                	sd	s0,16(sp)
ffffffc0504011b0:	1000                	addi	s0,sp,32
ffffffc0504011b2:	87aa                	mv	a5,a0
ffffffc0504011b4:	872e                	mv	a4,a1
ffffffc0504011b6:	fef42623          	sw	a5,-20(s0)
ffffffc0504011ba:	87ba                	mv	a5,a4
ffffffc0504011bc:	fef42423          	sw	a5,-24(s0)
ffffffc0504011c0:	ee5fe0ef          	jal	ra,ffffffc0504000a4 <disable_preempt>
ffffffc0504011c4:	00025797          	auipc	a5,0x25
ffffffc0504011c8:	33478793          	addi	a5,a5,820 # ffffffc0504264f8 <screen_cursor_x>
ffffffc0504011cc:	fec42703          	lw	a4,-20(s0)
ffffffc0504011d0:	c398                	sw	a4,0(a5)
ffffffc0504011d2:	00025797          	auipc	a5,0x25
ffffffc0504011d6:	32a78793          	addi	a5,a5,810 # ffffffc0504264fc <screen_cursor_y>
ffffffc0504011da:	fe842703          	lw	a4,-24(s0)
ffffffc0504011de:	c398                	sw	a4,0(a5)
ffffffc0504011e0:	00025797          	auipc	a5,0x25
ffffffc0504011e4:	32078793          	addi	a5,a5,800 # ffffffc050426500 <current_running>
ffffffc0504011e8:	639c                	ld	a5,0(a5)
ffffffc0504011ea:	00025717          	auipc	a4,0x25
ffffffc0504011ee:	30e70713          	addi	a4,a4,782 # ffffffc0504264f8 <screen_cursor_x>
ffffffc0504011f2:	4318                	lw	a4,0(a4)
ffffffc0504011f4:	cfb8                	sw	a4,88(a5)
ffffffc0504011f6:	00025797          	auipc	a5,0x25
ffffffc0504011fa:	30a78793          	addi	a5,a5,778 # ffffffc050426500 <current_running>
ffffffc0504011fe:	639c                	ld	a5,0(a5)
ffffffc050401200:	00025717          	auipc	a4,0x25
ffffffc050401204:	2fc70713          	addi	a4,a4,764 # ffffffc0504264fc <screen_cursor_y>
ffffffc050401208:	4318                	lw	a4,0(a4)
ffffffc05040120a:	cff8                	sw	a4,92(a5)
ffffffc05040120c:	e71fe0ef          	jal	ra,ffffffc05040007c <enable_preempt>
ffffffc050401210:	0001                	nop
ffffffc050401212:	60e2                	ld	ra,24(sp)
ffffffc050401214:	6442                	ld	s0,16(sp)
ffffffc050401216:	6105                	addi	sp,sp,32
ffffffc050401218:	8082                	ret

ffffffc05040121a <screen_write>:
ffffffc05040121a:	7179                	addi	sp,sp,-48
ffffffc05040121c:	f406                	sd	ra,40(sp)
ffffffc05040121e:	f022                	sd	s0,32(sp)
ffffffc050401220:	1800                	addi	s0,sp,48
ffffffc050401222:	fca43c23          	sd	a0,-40(s0)
ffffffc050401226:	fe042623          	sw	zero,-20(s0)
ffffffc05040122a:	fd843503          	ld	a0,-40(s0)
ffffffc05040122e:	77c010ef          	jal	ra,ffffffc0504029aa <kstrlen>
ffffffc050401232:	87aa                	mv	a5,a0
ffffffc050401234:	fef42423          	sw	a5,-24(s0)
ffffffc050401238:	fe042623          	sw	zero,-20(s0)
ffffffc05040123c:	a005                	j	ffffffc05040125c <screen_write+0x42>
ffffffc05040123e:	fec42783          	lw	a5,-20(s0)
ffffffc050401242:	fd843703          	ld	a4,-40(s0)
ffffffc050401246:	97ba                	add	a5,a5,a4
ffffffc050401248:	0007c783          	lbu	a5,0(a5)
ffffffc05040124c:	853e                	mv	a0,a5
ffffffc05040124e:	dd5ff0ef          	jal	ra,ffffffc050401022 <screen_write_ch>
ffffffc050401252:	fec42783          	lw	a5,-20(s0)
ffffffc050401256:	2785                	addiw	a5,a5,1
ffffffc050401258:	fef42623          	sw	a5,-20(s0)
ffffffc05040125c:	fec42703          	lw	a4,-20(s0)
ffffffc050401260:	fe842783          	lw	a5,-24(s0)
ffffffc050401264:	2701                	sext.w	a4,a4
ffffffc050401266:	2781                	sext.w	a5,a5
ffffffc050401268:	fcf74be3          	blt	a4,a5,ffffffc05040123e <screen_write+0x24>
ffffffc05040126c:	00e000ef          	jal	ra,ffffffc05040127a <screen_reflush>
ffffffc050401270:	0001                	nop
ffffffc050401272:	70a2                	ld	ra,40(sp)
ffffffc050401274:	7402                	ld	s0,32(sp)
ffffffc050401276:	6145                	addi	sp,sp,48
ffffffc050401278:	8082                	ret

ffffffc05040127a <screen_reflush>:
ffffffc05040127a:	1101                	addi	sp,sp,-32
ffffffc05040127c:	ec06                	sd	ra,24(sp)
ffffffc05040127e:	e822                	sd	s0,16(sp)
ffffffc050401280:	1000                	addi	s0,sp,32
ffffffc050401282:	e23fe0ef          	jal	ra,ffffffc0504000a4 <disable_preempt>
ffffffc050401286:	fe042623          	sw	zero,-20(s0)
ffffffc05040128a:	a221                	j	ffffffc050401392 <screen_reflush+0x118>
ffffffc05040128c:	fe042423          	sw	zero,-24(s0)
ffffffc050401290:	a0e5                	j	ffffffc050401378 <screen_reflush+0xfe>
ffffffc050401292:	fec42703          	lw	a4,-20(s0)
ffffffc050401296:	06400793          	li	a5,100
ffffffc05040129a:	02f707bb          	mulw	a5,a4,a5
ffffffc05040129e:	2781                	sext.w	a5,a5
ffffffc0504012a0:	fe842703          	lw	a4,-24(s0)
ffffffc0504012a4:	9fb9                	addw	a5,a5,a4
ffffffc0504012a6:	2781                	sext.w	a5,a5
ffffffc0504012a8:	00023717          	auipc	a4,0x23
ffffffc0504012ac:	a4870713          	addi	a4,a4,-1464 # ffffffc050423cf0 <new_screen>
ffffffc0504012b0:	97ba                	add	a5,a5,a4
ffffffc0504012b2:	0007c683          	lbu	a3,0(a5)
ffffffc0504012b6:	fec42703          	lw	a4,-20(s0)
ffffffc0504012ba:	06400793          	li	a5,100
ffffffc0504012be:	02f707bb          	mulw	a5,a4,a5
ffffffc0504012c2:	2781                	sext.w	a5,a5
ffffffc0504012c4:	fe842703          	lw	a4,-24(s0)
ffffffc0504012c8:	9fb9                	addw	a5,a5,a4
ffffffc0504012ca:	2781                	sext.w	a5,a5
ffffffc0504012cc:	00024717          	auipc	a4,0x24
ffffffc0504012d0:	dac70713          	addi	a4,a4,-596 # ffffffc050425078 <old_screen>
ffffffc0504012d4:	97ba                	add	a5,a5,a4
ffffffc0504012d6:	0007c783          	lbu	a5,0(a5)
ffffffc0504012da:	8736                	mv	a4,a3
ffffffc0504012dc:	08f70963          	beq	a4,a5,ffffffc05040136e <screen_reflush+0xf4>
ffffffc0504012e0:	fe842783          	lw	a5,-24(s0)
ffffffc0504012e4:	2785                	addiw	a5,a5,1
ffffffc0504012e6:	0007871b          	sext.w	a4,a5
ffffffc0504012ea:	fec42783          	lw	a5,-20(s0)
ffffffc0504012ee:	2785                	addiw	a5,a5,1
ffffffc0504012f0:	2781                	sext.w	a5,a5
ffffffc0504012f2:	85be                	mv	a1,a5
ffffffc0504012f4:	853a                	mv	a0,a4
ffffffc0504012f6:	c8bff0ef          	jal	ra,ffffffc050400f80 <vt100_move_cursor>
ffffffc0504012fa:	fec42703          	lw	a4,-20(s0)
ffffffc0504012fe:	06400793          	li	a5,100
ffffffc050401302:	02f707bb          	mulw	a5,a4,a5
ffffffc050401306:	2781                	sext.w	a5,a5
ffffffc050401308:	fe842703          	lw	a4,-24(s0)
ffffffc05040130c:	9fb9                	addw	a5,a5,a4
ffffffc05040130e:	2781                	sext.w	a5,a5
ffffffc050401310:	00023717          	auipc	a4,0x23
ffffffc050401314:	9e070713          	addi	a4,a4,-1568 # ffffffc050423cf0 <new_screen>
ffffffc050401318:	97ba                	add	a5,a5,a4
ffffffc05040131a:	0007c783          	lbu	a5,0(a5)
ffffffc05040131e:	853e                	mv	a0,a5
ffffffc050401320:	f41fe0ef          	jal	ra,ffffffc050400260 <port_write_ch>
ffffffc050401324:	fec42703          	lw	a4,-20(s0)
ffffffc050401328:	06400793          	li	a5,100
ffffffc05040132c:	02f707bb          	mulw	a5,a4,a5
ffffffc050401330:	2781                	sext.w	a5,a5
ffffffc050401332:	fe842703          	lw	a4,-24(s0)
ffffffc050401336:	9fb9                	addw	a5,a5,a4
ffffffc050401338:	0007871b          	sext.w	a4,a5
ffffffc05040133c:	fec42683          	lw	a3,-20(s0)
ffffffc050401340:	06400793          	li	a5,100
ffffffc050401344:	02f687bb          	mulw	a5,a3,a5
ffffffc050401348:	2781                	sext.w	a5,a5
ffffffc05040134a:	fe842683          	lw	a3,-24(s0)
ffffffc05040134e:	9fb5                	addw	a5,a5,a3
ffffffc050401350:	2781                	sext.w	a5,a5
ffffffc050401352:	00023697          	auipc	a3,0x23
ffffffc050401356:	99e68693          	addi	a3,a3,-1634 # ffffffc050423cf0 <new_screen>
ffffffc05040135a:	9736                	add	a4,a4,a3
ffffffc05040135c:	00074703          	lbu	a4,0(a4)
ffffffc050401360:	00024697          	auipc	a3,0x24
ffffffc050401364:	d1868693          	addi	a3,a3,-744 # ffffffc050425078 <old_screen>
ffffffc050401368:	97b6                	add	a5,a5,a3
ffffffc05040136a:	00e78023          	sb	a4,0(a5)
ffffffc05040136e:	fe842783          	lw	a5,-24(s0)
ffffffc050401372:	2785                	addiw	a5,a5,1
ffffffc050401374:	fef42423          	sw	a5,-24(s0)
ffffffc050401378:	fe842783          	lw	a5,-24(s0)
ffffffc05040137c:	0007871b          	sext.w	a4,a5
ffffffc050401380:	06300793          	li	a5,99
ffffffc050401384:	f0e7d7e3          	bge	a5,a4,ffffffc050401292 <screen_reflush+0x18>
ffffffc050401388:	fec42783          	lw	a5,-20(s0)
ffffffc05040138c:	2785                	addiw	a5,a5,1
ffffffc05040138e:	fef42623          	sw	a5,-20(s0)
ffffffc050401392:	fec42783          	lw	a5,-20(s0)
ffffffc050401396:	0007871b          	sext.w	a4,a5
ffffffc05040139a:	03100793          	li	a5,49
ffffffc05040139e:	eee7d7e3          	bge	a5,a4,ffffffc05040128c <screen_reflush+0x12>
ffffffc0504013a2:	00025797          	auipc	a5,0x25
ffffffc0504013a6:	15678793          	addi	a5,a5,342 # ffffffc0504264f8 <screen_cursor_x>
ffffffc0504013aa:	4398                	lw	a4,0(a5)
ffffffc0504013ac:	00025797          	auipc	a5,0x25
ffffffc0504013b0:	15078793          	addi	a5,a5,336 # ffffffc0504264fc <screen_cursor_y>
ffffffc0504013b4:	439c                	lw	a5,0(a5)
ffffffc0504013b6:	85be                	mv	a1,a5
ffffffc0504013b8:	853a                	mv	a0,a4
ffffffc0504013ba:	bc7ff0ef          	jal	ra,ffffffc050400f80 <vt100_move_cursor>
ffffffc0504013be:	cbffe0ef          	jal	ra,ffffffc05040007c <enable_preempt>
ffffffc0504013c2:	0001                	nop
ffffffc0504013c4:	60e2                	ld	ra,24(sp)
ffffffc0504013c6:	6442                	ld	s0,16(sp)
ffffffc0504013c8:	6105                	addi	sp,sp,32
ffffffc0504013ca:	8082                	ret

ffffffc0504013cc <screen_serial_write>:
ffffffc0504013cc:	1101                	addi	sp,sp,-32
ffffffc0504013ce:	ec06                	sd	ra,24(sp)
ffffffc0504013d0:	e822                	sd	s0,16(sp)
ffffffc0504013d2:	1000                	addi	s0,sp,32
ffffffc0504013d4:	87aa                	mv	a5,a0
ffffffc0504013d6:	fef407a3          	sb	a5,-17(s0)
ffffffc0504013da:	ccbfe0ef          	jal	ra,ffffffc0504000a4 <disable_preempt>
ffffffc0504013de:	fef44783          	lbu	a5,-17(s0)
ffffffc0504013e2:	0ff7f713          	andi	a4,a5,255
ffffffc0504013e6:	47a9                	li	a5,10
ffffffc0504013e8:	02f71663          	bne	a4,a5,ffffffc050401414 <screen_serial_write+0x48>
ffffffc0504013ec:	00025797          	auipc	a5,0x25
ffffffc0504013f0:	10c78793          	addi	a5,a5,268 # ffffffc0504264f8 <screen_cursor_x>
ffffffc0504013f4:	4705                	li	a4,1
ffffffc0504013f6:	c398                	sw	a4,0(a5)
ffffffc0504013f8:	00025797          	auipc	a5,0x25
ffffffc0504013fc:	10478793          	addi	a5,a5,260 # ffffffc0504264fc <screen_cursor_y>
ffffffc050401400:	439c                	lw	a5,0(a5)
ffffffc050401402:	2785                	addiw	a5,a5,1
ffffffc050401404:	0007871b          	sext.w	a4,a5
ffffffc050401408:	00025797          	auipc	a5,0x25
ffffffc05040140c:	0f478793          	addi	a5,a5,244 # ffffffc0504264fc <screen_cursor_y>
ffffffc050401410:	c398                	sw	a4,0(a5)
ffffffc050401412:	a8d9                	j	ffffffc0504014e8 <screen_serial_write+0x11c>
ffffffc050401414:	fef44783          	lbu	a5,-17(s0)
ffffffc050401418:	0ff7f713          	andi	a4,a5,255
ffffffc05040141c:	47a1                	li	a5,8
ffffffc05040141e:	00f70a63          	beq	a4,a5,ffffffc050401432 <screen_serial_write+0x66>
ffffffc050401422:	fef44783          	lbu	a5,-17(s0)
ffffffc050401426:	0ff7f713          	andi	a4,a5,255
ffffffc05040142a:	07f00793          	li	a5,127
ffffffc05040142e:	06f71063          	bne	a4,a5,ffffffc05040148e <screen_serial_write+0xc2>
ffffffc050401432:	00025797          	auipc	a5,0x25
ffffffc050401436:	0c678793          	addi	a5,a5,198 # ffffffc0504264f8 <screen_cursor_x>
ffffffc05040143a:	439c                	lw	a5,0(a5)
ffffffc05040143c:	37fd                	addiw	a5,a5,-1
ffffffc05040143e:	0007871b          	sext.w	a4,a5
ffffffc050401442:	00025797          	auipc	a5,0x25
ffffffc050401446:	0b678793          	addi	a5,a5,182 # ffffffc0504264f8 <screen_cursor_x>
ffffffc05040144a:	c398                	sw	a4,0(a5)
ffffffc05040144c:	00025797          	auipc	a5,0x25
ffffffc050401450:	0b078793          	addi	a5,a5,176 # ffffffc0504264fc <screen_cursor_y>
ffffffc050401454:	439c                	lw	a5,0(a5)
ffffffc050401456:	37fd                	addiw	a5,a5,-1
ffffffc050401458:	0007871b          	sext.w	a4,a5
ffffffc05040145c:	06400793          	li	a5,100
ffffffc050401460:	02f707bb          	mulw	a5,a4,a5
ffffffc050401464:	0007871b          	sext.w	a4,a5
ffffffc050401468:	00025797          	auipc	a5,0x25
ffffffc05040146c:	09078793          	addi	a5,a5,144 # ffffffc0504264f8 <screen_cursor_x>
ffffffc050401470:	439c                	lw	a5,0(a5)
ffffffc050401472:	37fd                	addiw	a5,a5,-1
ffffffc050401474:	2781                	sext.w	a5,a5
ffffffc050401476:	9fb9                	addw	a5,a5,a4
ffffffc050401478:	2781                	sext.w	a5,a5
ffffffc05040147a:	00023717          	auipc	a4,0x23
ffffffc05040147e:	87670713          	addi	a4,a4,-1930 # ffffffc050423cf0 <new_screen>
ffffffc050401482:	97ba                	add	a5,a5,a4
ffffffc050401484:	02000713          	li	a4,32
ffffffc050401488:	00e78023          	sb	a4,0(a5)
ffffffc05040148c:	a8b1                	j	ffffffc0504014e8 <screen_serial_write+0x11c>
ffffffc05040148e:	00025797          	auipc	a5,0x25
ffffffc050401492:	06e78793          	addi	a5,a5,110 # ffffffc0504264fc <screen_cursor_y>
ffffffc050401496:	439c                	lw	a5,0(a5)
ffffffc050401498:	37fd                	addiw	a5,a5,-1
ffffffc05040149a:	0007871b          	sext.w	a4,a5
ffffffc05040149e:	06400793          	li	a5,100
ffffffc0504014a2:	02f707bb          	mulw	a5,a4,a5
ffffffc0504014a6:	0007871b          	sext.w	a4,a5
ffffffc0504014aa:	00025797          	auipc	a5,0x25
ffffffc0504014ae:	04e78793          	addi	a5,a5,78 # ffffffc0504264f8 <screen_cursor_x>
ffffffc0504014b2:	439c                	lw	a5,0(a5)
ffffffc0504014b4:	37fd                	addiw	a5,a5,-1
ffffffc0504014b6:	2781                	sext.w	a5,a5
ffffffc0504014b8:	9fb9                	addw	a5,a5,a4
ffffffc0504014ba:	2781                	sext.w	a5,a5
ffffffc0504014bc:	00023717          	auipc	a4,0x23
ffffffc0504014c0:	83470713          	addi	a4,a4,-1996 # ffffffc050423cf0 <new_screen>
ffffffc0504014c4:	97ba                	add	a5,a5,a4
ffffffc0504014c6:	fef44703          	lbu	a4,-17(s0)
ffffffc0504014ca:	00e78023          	sb	a4,0(a5)
ffffffc0504014ce:	00025797          	auipc	a5,0x25
ffffffc0504014d2:	02a78793          	addi	a5,a5,42 # ffffffc0504264f8 <screen_cursor_x>
ffffffc0504014d6:	439c                	lw	a5,0(a5)
ffffffc0504014d8:	2785                	addiw	a5,a5,1
ffffffc0504014da:	0007871b          	sext.w	a4,a5
ffffffc0504014de:	00025797          	auipc	a5,0x25
ffffffc0504014e2:	01a78793          	addi	a5,a5,26 # ffffffc0504264f8 <screen_cursor_x>
ffffffc0504014e6:	c398                	sw	a4,0(a5)
ffffffc0504014e8:	00025797          	auipc	a5,0x25
ffffffc0504014ec:	01878793          	addi	a5,a5,24 # ffffffc050426500 <current_running>
ffffffc0504014f0:	639c                	ld	a5,0(a5)
ffffffc0504014f2:	00025717          	auipc	a4,0x25
ffffffc0504014f6:	00670713          	addi	a4,a4,6 # ffffffc0504264f8 <screen_cursor_x>
ffffffc0504014fa:	4318                	lw	a4,0(a4)
ffffffc0504014fc:	cfb8                	sw	a4,88(a5)
ffffffc0504014fe:	00025797          	auipc	a5,0x25
ffffffc050401502:	00278793          	addi	a5,a5,2 # ffffffc050426500 <current_running>
ffffffc050401506:	639c                	ld	a5,0(a5)
ffffffc050401508:	00025717          	auipc	a4,0x25
ffffffc05040150c:	ff470713          	addi	a4,a4,-12 # ffffffc0504264fc <screen_cursor_y>
ffffffc050401510:	4318                	lw	a4,0(a4)
ffffffc050401512:	cff8                	sw	a4,92(a5)
ffffffc050401514:	d67ff0ef          	jal	ra,ffffffc05040127a <screen_reflush>
ffffffc050401518:	b65fe0ef          	jal	ra,ffffffc05040007c <enable_preempt>
ffffffc05040151c:	0001                	nop
ffffffc05040151e:	60e2                	ld	ra,24(sp)
ffffffc050401520:	6442                	ld	s0,16(sp)
ffffffc050401522:	6105                	addi	sp,sp,32
ffffffc050401524:	8082                	ret

ffffffc050401526 <local_flush_tlb_all>:
ffffffc050401526:	1141                	addi	sp,sp,-16
ffffffc050401528:	e422                	sd	s0,8(sp)
ffffffc05040152a:	0800                	addi	s0,sp,16
ffffffc05040152c:	12000073          	sfence.vma
ffffffc050401530:	0001                	nop
ffffffc050401532:	6422                	ld	s0,8(sp)
ffffffc050401534:	0141                	addi	sp,sp,16
ffffffc050401536:	8082                	ret

ffffffc050401538 <set_satp>:
ffffffc050401538:	7179                	addi	sp,sp,-48
ffffffc05040153a:	f422                	sd	s0,40(sp)
ffffffc05040153c:	1800                	addi	s0,sp,48
ffffffc05040153e:	87aa                	mv	a5,a0
ffffffc050401540:	872e                	mv	a4,a1
ffffffc050401542:	fcc43823          	sd	a2,-48(s0)
ffffffc050401546:	fcf42e23          	sw	a5,-36(s0)
ffffffc05040154a:	87ba                	mv	a5,a4
ffffffc05040154c:	fcf42c23          	sw	a5,-40(s0)
ffffffc050401550:	fdc46783          	lwu	a5,-36(s0)
ffffffc050401554:	03c79713          	slli	a4,a5,0x3c
ffffffc050401558:	fd846783          	lwu	a5,-40(s0)
ffffffc05040155c:	17b2                	slli	a5,a5,0x2c
ffffffc05040155e:	8fd9                	or	a5,a5,a4
ffffffc050401560:	fd043703          	ld	a4,-48(s0)
ffffffc050401564:	8fd9                	or	a5,a5,a4
ffffffc050401566:	fef43423          	sd	a5,-24(s0)
ffffffc05040156a:	fe843783          	ld	a5,-24(s0)
ffffffc05040156e:	12000073          	sfence.vma
ffffffc050401572:	18079073          	csrw	satp,a5
ffffffc050401576:	0001                	nop
ffffffc050401578:	7422                	ld	s0,40(sp)
ffffffc05040157a:	6145                	addi	sp,sp,48
ffffffc05040157c:	8082                	ret

ffffffc05040157e <kva2pa>:
ffffffc05040157e:	1101                	addi	sp,sp,-32
ffffffc050401580:	ec22                	sd	s0,24(sp)
ffffffc050401582:	1000                	addi	s0,sp,32
ffffffc050401584:	fea43423          	sd	a0,-24(s0)
ffffffc050401588:	fe843703          	ld	a4,-24(s0)
ffffffc05040158c:	4785                	li	a5,1
ffffffc05040158e:	179a                	slli	a5,a5,0x26
ffffffc050401590:	97ba                	add	a5,a5,a4
ffffffc050401592:	853e                	mv	a0,a5
ffffffc050401594:	6462                	ld	s0,24(sp)
ffffffc050401596:	6105                	addi	sp,sp,32
ffffffc050401598:	8082                	ret

ffffffc05040159a <pa2kva>:
ffffffc05040159a:	1101                	addi	sp,sp,-32
ffffffc05040159c:	ec22                	sd	s0,24(sp)
ffffffc05040159e:	1000                	addi	s0,sp,32
ffffffc0504015a0:	fea43423          	sd	a0,-24(s0)
ffffffc0504015a4:	fe843703          	ld	a4,-24(s0)
ffffffc0504015a8:	57fd                	li	a5,-1
ffffffc0504015aa:	179a                	slli	a5,a5,0x26
ffffffc0504015ac:	97ba                	add	a5,a5,a4
ffffffc0504015ae:	853e                	mv	a0,a5
ffffffc0504015b0:	6462                	ld	s0,24(sp)
ffffffc0504015b2:	6105                	addi	sp,sp,32
ffffffc0504015b4:	8082                	ret

ffffffc0504015b6 <is_elf_format>:
ffffffc0504015b6:	7179                	addi	sp,sp,-48
ffffffc0504015b8:	f422                	sd	s0,40(sp)
ffffffc0504015ba:	1800                	addi	s0,sp,48
ffffffc0504015bc:	fca43c23          	sd	a0,-40(s0)
ffffffc0504015c0:	fd843783          	ld	a5,-40(s0)
ffffffc0504015c4:	fef43423          	sd	a5,-24(s0)
ffffffc0504015c8:	fe843783          	ld	a5,-24(s0)
ffffffc0504015cc:	0007c783          	lbu	a5,0(a5)
ffffffc0504015d0:	eb9d                	bnez	a5,ffffffc050401606 <is_elf_format+0x50>
ffffffc0504015d2:	fe843783          	ld	a5,-24(s0)
ffffffc0504015d6:	0017c783          	lbu	a5,1(a5)
ffffffc0504015da:	873e                	mv	a4,a5
ffffffc0504015dc:	4785                	li	a5,1
ffffffc0504015de:	02f71463          	bne	a4,a5,ffffffc050401606 <is_elf_format+0x50>
ffffffc0504015e2:	fe843783          	ld	a5,-24(s0)
ffffffc0504015e6:	0027c783          	lbu	a5,2(a5)
ffffffc0504015ea:	873e                	mv	a4,a5
ffffffc0504015ec:	4789                	li	a5,2
ffffffc0504015ee:	00f71c63          	bne	a4,a5,ffffffc050401606 <is_elf_format+0x50>
ffffffc0504015f2:	fe843783          	ld	a5,-24(s0)
ffffffc0504015f6:	0037c783          	lbu	a5,3(a5)
ffffffc0504015fa:	873e                	mv	a4,a5
ffffffc0504015fc:	478d                	li	a5,3
ffffffc0504015fe:	00f71463          	bne	a4,a5,ffffffc050401606 <is_elf_format+0x50>
ffffffc050401602:	4781                	li	a5,0
ffffffc050401604:	a011                	j	ffffffc050401608 <is_elf_format+0x52>
ffffffc050401606:	4785                	li	a5,1
ffffffc050401608:	853e                	mv	a0,a5
ffffffc05040160a:	7422                	ld	s0,40(sp)
ffffffc05040160c:	6145                	addi	sp,sp,48
ffffffc05040160e:	8082                	ret

ffffffc050401610 <load_elf>:
ffffffc050401610:	7159                	addi	sp,sp,-112
ffffffc050401612:	f486                	sd	ra,104(sp)
ffffffc050401614:	f0a2                	sd	s0,96(sp)
ffffffc050401616:	1880                	addi	s0,sp,112
ffffffc050401618:	faa43423          	sd	a0,-88(s0)
ffffffc05040161c:	87ae                	mv	a5,a1
ffffffc05040161e:	f8c43c23          	sd	a2,-104(s0)
ffffffc050401622:	f8d43823          	sd	a3,-112(s0)
ffffffc050401626:	faf42223          	sw	a5,-92(s0)
ffffffc05040162a:	fa843783          	ld	a5,-88(s0)
ffffffc05040162e:	fcf43823          	sd	a5,-48(s0)
ffffffc050401632:	fc043423          	sd	zero,-56(s0)
ffffffc050401636:	fe043423          	sd	zero,-24(s0)
ffffffc05040163a:	fe042023          	sw	zero,-32(s0)
ffffffc05040163e:	fa442783          	lw	a5,-92(s0)
ffffffc050401642:	0007871b          	sext.w	a4,a5
ffffffc050401646:	478d                	li	a5,3
ffffffc050401648:	00e7f863          	bgeu	a5,a4,ffffffc050401658 <load_elf+0x48>
ffffffc05040164c:	fa843503          	ld	a0,-88(s0)
ffffffc050401650:	f67ff0ef          	jal	ra,ffffffc0504015b6 <is_elf_format>
ffffffc050401654:	87aa                	mv	a5,a0
ffffffc050401656:	e399                	bnez	a5,ffffffc05040165c <load_elf+0x4c>
ffffffc050401658:	4781                	li	a5,0
ffffffc05040165a:	a259                	j	ffffffc0504017e0 <load_elf+0x1d0>
ffffffc05040165c:	fd043783          	ld	a5,-48(s0)
ffffffc050401660:	739c                	ld	a5,32(a5)
ffffffc050401662:	fa843703          	ld	a4,-88(s0)
ffffffc050401666:	97ba                	add	a5,a5,a4
ffffffc050401668:	fef43423          	sd	a5,-24(s0)
ffffffc05040166c:	fd043783          	ld	a5,-48(s0)
ffffffc050401670:	0387d783          	lhu	a5,56(a5)
ffffffc050401674:	fef41323          	sh	a5,-26(s0)
ffffffc050401678:	fd043783          	ld	a5,-48(s0)
ffffffc05040167c:	0367d783          	lhu	a5,54(a5)
ffffffc050401680:	fcf41323          	sh	a5,-58(s0)
ffffffc050401684:	a299                	j	ffffffc0504017ca <load_elf+0x1ba>
ffffffc050401686:	fe843783          	ld	a5,-24(s0)
ffffffc05040168a:	fcf43423          	sd	a5,-56(s0)
ffffffc05040168e:	fc843783          	ld	a5,-56(s0)
ffffffc050401692:	439c                	lw	a5,0(a5)
ffffffc050401694:	873e                	mv	a4,a5
ffffffc050401696:	4785                	li	a5,1
ffffffc050401698:	12f71263          	bne	a4,a5,ffffffc0504017bc <load_elf+0x1ac>
ffffffc05040169c:	fe042023          	sw	zero,-32(s0)
ffffffc0504016a0:	a239                	j	ffffffc0504017ae <load_elf+0x19e>
ffffffc0504016a2:	fe042703          	lw	a4,-32(s0)
ffffffc0504016a6:	fc843783          	ld	a5,-56(s0)
ffffffc0504016aa:	739c                	ld	a5,32(a5)
ffffffc0504016ac:	0af77463          	bgeu	a4,a5,ffffffc050401754 <load_elf+0x144>
ffffffc0504016b0:	fc843783          	ld	a5,-56(s0)
ffffffc0504016b4:	6b98                	ld	a4,16(a5)
ffffffc0504016b6:	fe042783          	lw	a5,-32(s0)
ffffffc0504016ba:	97ba                	add	a5,a5,a4
ffffffc0504016bc:	f9043703          	ld	a4,-112(s0)
ffffffc0504016c0:	f9843583          	ld	a1,-104(s0)
ffffffc0504016c4:	853e                	mv	a0,a5
ffffffc0504016c6:	9702                	jalr	a4
ffffffc0504016c8:	87aa                	mv	a5,a0
ffffffc0504016ca:	faf43823          	sd	a5,-80(s0)
ffffffc0504016ce:	fc843783          	ld	a5,-56(s0)
ffffffc0504016d2:	6798                	ld	a4,8(a5)
ffffffc0504016d4:	fe042783          	lw	a5,-32(s0)
ffffffc0504016d8:	97ba                	add	a5,a5,a4
ffffffc0504016da:	fa843703          	ld	a4,-88(s0)
ffffffc0504016de:	00f706b3          	add	a3,a4,a5
ffffffc0504016e2:	fc843783          	ld	a5,-56(s0)
ffffffc0504016e6:	7398                	ld	a4,32(a5)
ffffffc0504016e8:	fe042783          	lw	a5,-32(s0)
ffffffc0504016ec:	40f707b3          	sub	a5,a4,a5
ffffffc0504016f0:	6705                	lui	a4,0x1
ffffffc0504016f2:	00f77363          	bgeu	a4,a5,ffffffc0504016f8 <load_elf+0xe8>
ffffffc0504016f6:	6785                	lui	a5,0x1
ffffffc0504016f8:	2781                	sext.w	a5,a5
ffffffc0504016fa:	863e                	mv	a2,a5
ffffffc0504016fc:	85b6                	mv	a1,a3
ffffffc0504016fe:	fb043503          	ld	a0,-80(s0)
ffffffc050401702:	256010ef          	jal	ra,ffffffc050402958 <memcpy>
ffffffc050401706:	fc843783          	ld	a5,-56(s0)
ffffffc05040170a:	7398                	ld	a4,32(a5)
ffffffc05040170c:	fe042783          	lw	a5,-32(s0)
ffffffc050401710:	8f1d                	sub	a4,a4,a5
ffffffc050401712:	6785                	lui	a5,0x1
ffffffc050401714:	08f77663          	bgeu	a4,a5,ffffffc0504017a0 <load_elf+0x190>
ffffffc050401718:	fc843783          	ld	a5,-56(s0)
ffffffc05040171c:	739c                	ld	a5,32(a5)
ffffffc05040171e:	0007871b          	sext.w	a4,a5
ffffffc050401722:	6785                	lui	a5,0x1
ffffffc050401724:	17fd                	addi	a5,a5,-1
ffffffc050401726:	8ff9                	and	a5,a5,a4
ffffffc050401728:	fcf42e23          	sw	a5,-36(s0)
ffffffc05040172c:	a829                	j	ffffffc050401746 <load_elf+0x136>
ffffffc05040172e:	fdc42783          	lw	a5,-36(s0)
ffffffc050401732:	fb043703          	ld	a4,-80(s0)
ffffffc050401736:	97ba                	add	a5,a5,a4
ffffffc050401738:	00078023          	sb	zero,0(a5) # 1000 <_start-0xffffffc0503ff000>
ffffffc05040173c:	fdc42783          	lw	a5,-36(s0)
ffffffc050401740:	2785                	addiw	a5,a5,1
ffffffc050401742:	fcf42e23          	sw	a5,-36(s0)
ffffffc050401746:	fdc42783          	lw	a5,-36(s0)
ffffffc05040174a:	873e                	mv	a4,a5
ffffffc05040174c:	6785                	lui	a5,0x1
ffffffc05040174e:	fef760e3          	bltu	a4,a5,ffffffc05040172e <load_elf+0x11e>
ffffffc050401752:	a0b9                	j	ffffffc0504017a0 <load_elf+0x190>
ffffffc050401754:	fc843783          	ld	a5,-56(s0)
ffffffc050401758:	6b98                	ld	a4,16(a5)
ffffffc05040175a:	fe042783          	lw	a5,-32(s0)
ffffffc05040175e:	97ba                	add	a5,a5,a4
ffffffc050401760:	f9043703          	ld	a4,-112(s0)
ffffffc050401764:	f9843583          	ld	a1,-104(s0)
ffffffc050401768:	853e                	mv	a0,a5
ffffffc05040176a:	9702                	jalr	a4
ffffffc05040176c:	87aa                	mv	a5,a0
ffffffc05040176e:	faf43c23          	sd	a5,-72(s0)
ffffffc050401772:	fc042c23          	sw	zero,-40(s0)
ffffffc050401776:	a831                	j	ffffffc050401792 <load_elf+0x182>
ffffffc050401778:	fd842783          	lw	a5,-40(s0)
ffffffc05040177c:	078e                	slli	a5,a5,0x3
ffffffc05040177e:	fb843703          	ld	a4,-72(s0)
ffffffc050401782:	97ba                	add	a5,a5,a4
ffffffc050401784:	0007b023          	sd	zero,0(a5) # 1000 <_start-0xffffffc0503ff000>
ffffffc050401788:	fd842783          	lw	a5,-40(s0)
ffffffc05040178c:	2785                	addiw	a5,a5,1
ffffffc05040178e:	fcf42c23          	sw	a5,-40(s0)
ffffffc050401792:	fd842783          	lw	a5,-40(s0)
ffffffc050401796:	873e                	mv	a4,a5
ffffffc050401798:	1ff00793          	li	a5,511
ffffffc05040179c:	fce7fee3          	bgeu	a5,a4,ffffffc050401778 <load_elf+0x168>
ffffffc0504017a0:	fe042703          	lw	a4,-32(s0)
ffffffc0504017a4:	6785                	lui	a5,0x1
ffffffc0504017a6:	9fb9                	addw	a5,a5,a4
ffffffc0504017a8:	2781                	sext.w	a5,a5
ffffffc0504017aa:	fef42023          	sw	a5,-32(s0)
ffffffc0504017ae:	fe042703          	lw	a4,-32(s0)
ffffffc0504017b2:	fc843783          	ld	a5,-56(s0)
ffffffc0504017b6:	779c                	ld	a5,40(a5)
ffffffc0504017b8:	eef765e3          	bltu	a4,a5,ffffffc0504016a2 <load_elf+0x92>
ffffffc0504017bc:	fc645783          	lhu	a5,-58(s0)
ffffffc0504017c0:	fe843703          	ld	a4,-24(s0)
ffffffc0504017c4:	97ba                	add	a5,a5,a4
ffffffc0504017c6:	fef43423          	sd	a5,-24(s0)
ffffffc0504017ca:	fe645783          	lhu	a5,-26(s0)
ffffffc0504017ce:	fff7871b          	addiw	a4,a5,-1
ffffffc0504017d2:	fee41323          	sh	a4,-26(s0)
ffffffc0504017d6:	ea0798e3          	bnez	a5,ffffffc050401686 <load_elf+0x76>
ffffffc0504017da:	fd043783          	ld	a5,-48(s0)
ffffffc0504017de:	6f9c                	ld	a5,24(a5)
ffffffc0504017e0:	853e                	mv	a0,a5
ffffffc0504017e2:	70a6                	ld	ra,104(sp)
ffffffc0504017e4:	7406                	ld	s0,96(sp)
ffffffc0504017e6:	6165                	addi	sp,sp,112
ffffffc0504017e8:	8082                	ret

ffffffc0504017ea <match_elf>:
ffffffc0504017ea:	7179                	addi	sp,sp,-48
ffffffc0504017ec:	f406                	sd	ra,40(sp)
ffffffc0504017ee:	f022                	sd	s0,32(sp)
ffffffc0504017f0:	1800                	addi	s0,sp,48
ffffffc0504017f2:	fca43c23          	sd	a0,-40(s0)
ffffffc0504017f6:	4785                	li	a5,1
ffffffc0504017f8:	fef42623          	sw	a5,-20(s0)
ffffffc0504017fc:	a825                	j	ffffffc050401834 <match_elf+0x4a>
ffffffc0504017fe:	00022697          	auipc	a3,0x22
ffffffc050401802:	47268693          	addi	a3,a3,1138 # ffffffc050423c70 <elf_files>
ffffffc050401806:	fec42703          	lw	a4,-20(s0)
ffffffc05040180a:	87ba                	mv	a5,a4
ffffffc05040180c:	0786                	slli	a5,a5,0x1
ffffffc05040180e:	97ba                	add	a5,a5,a4
ffffffc050401810:	078e                	slli	a5,a5,0x3
ffffffc050401812:	97b6                	add	a5,a5,a3
ffffffc050401814:	639c                	ld	a5,0(a5)
ffffffc050401816:	85be                	mv	a1,a5
ffffffc050401818:	fd843503          	ld	a0,-40(s0)
ffffffc05040181c:	294010ef          	jal	ra,ffffffc050402ab0 <kstrcmp>
ffffffc050401820:	87aa                	mv	a5,a0
ffffffc050401822:	e781                	bnez	a5,ffffffc05040182a <match_elf+0x40>
ffffffc050401824:	fec42783          	lw	a5,-20(s0)
ffffffc050401828:	a831                	j	ffffffc050401844 <match_elf+0x5a>
ffffffc05040182a:	fec42783          	lw	a5,-20(s0)
ffffffc05040182e:	2785                	addiw	a5,a5,1
ffffffc050401830:	fef42623          	sw	a5,-20(s0)
ffffffc050401834:	fec42783          	lw	a5,-20(s0)
ffffffc050401838:	0007871b          	sext.w	a4,a5
ffffffc05040183c:	4789                	li	a5,2
ffffffc05040183e:	fce7d0e3          	bge	a5,a4,ffffffc0504017fe <match_elf+0x14>
ffffffc050401842:	57fd                	li	a5,-1
ffffffc050401844:	853e                	mv	a0,a5
ffffffc050401846:	70a2                	ld	ra,40(sp)
ffffffc050401848:	7402                	ld	s0,32(sp)
ffffffc05040184a:	6145                	addi	sp,sp,48
ffffffc05040184c:	8082                	ret

ffffffc05040184e <do_exec>:
ffffffc05040184e:	7175                	addi	sp,sp,-144
ffffffc050401850:	e506                	sd	ra,136(sp)
ffffffc050401852:	e122                	sd	s0,128(sp)
ffffffc050401854:	fca6                	sd	s1,120(sp)
ffffffc050401856:	0900                	addi	s0,sp,144
ffffffc050401858:	f8a43423          	sd	a0,-120(s0)
ffffffc05040185c:	87ae                	mv	a5,a1
ffffffc05040185e:	f6c43c23          	sd	a2,-136(s0)
ffffffc050401862:	8736                	mv	a4,a3
ffffffc050401864:	f8f42223          	sw	a5,-124(s0)
ffffffc050401868:	87ba                	mv	a5,a4
ffffffc05040186a:	f8f42023          	sw	a5,-128(s0)
ffffffc05040186e:	f8843503          	ld	a0,-120(s0)
ffffffc050401872:	f79ff0ef          	jal	ra,ffffffc0504017ea <match_elf>
ffffffc050401876:	87aa                	mv	a5,a0
ffffffc050401878:	873e                	mv	a4,a5
ffffffc05040187a:	57fd                	li	a5,-1
ffffffc05040187c:	00f71c63          	bne	a4,a5,ffffffc050401894 <do_exec+0x46>
ffffffc050401880:	f8843583          	ld	a1,-120(s0)
ffffffc050401884:	00003517          	auipc	a0,0x3
ffffffc050401888:	ef450513          	addi	a0,a0,-268 # ffffffc050404778 <__FUNCTION__.1462+0x58>
ffffffc05040188c:	45f010ef          	jal	ra,ffffffc0504034ea <prints>
ffffffc050401890:	57fd                	li	a5,-1
ffffffc050401892:	a4e9                	j	ffffffc050401b5c <do_exec+0x30e>
ffffffc050401894:	f6ffe0ef          	jal	ra,ffffffc050400802 <find_freepcb>
ffffffc050401898:	87aa                	mv	a5,a0
ffffffc05040189a:	fcf42e23          	sw	a5,-36(s0)
ffffffc05040189e:	fdc42783          	lw	a5,-36(s0)
ffffffc0504018a2:	0007871b          	sext.w	a4,a5
ffffffc0504018a6:	57fd                	li	a5,-1
ffffffc0504018a8:	00f71a63          	bne	a4,a5,ffffffc0504018bc <do_exec+0x6e>
ffffffc0504018ac:	00003517          	auipc	a0,0x3
ffffffc0504018b0:	ef450513          	addi	a0,a0,-268 # ffffffc0504047a0 <__FUNCTION__.1462+0x80>
ffffffc0504018b4:	437010ef          	jal	ra,ffffffc0504034ea <prints>
ffffffc0504018b8:	57fd                	li	a5,-1
ffffffc0504018ba:	a44d                	j	ffffffc050401b5c <do_exec+0x30e>
ffffffc0504018bc:	fdc42703          	lw	a4,-36(s0)
ffffffc0504018c0:	0d800793          	li	a5,216
ffffffc0504018c4:	02f70733          	mul	a4,a4,a5
ffffffc0504018c8:	00025797          	auipc	a5,0x25
ffffffc0504018cc:	c4078793          	addi	a5,a5,-960 # ffffffc050426508 <pcb>
ffffffc0504018d0:	97ba                	add	a5,a5,a4
ffffffc0504018d2:	fcf43823          	sd	a5,-48(s0)
ffffffc0504018d6:	47b000ef          	jal	ra,ffffffc050402550 <allocPage>
ffffffc0504018da:	872a                	mv	a4,a0
ffffffc0504018dc:	fd043783          	ld	a5,-48(s0)
ffffffc0504018e0:	e3f8                	sd	a4,192(a5)
ffffffc0504018e2:	fd043783          	ld	a5,-48(s0)
ffffffc0504018e6:	63e4                	ld	s1,192(a5)
ffffffc0504018e8:	5e000537          	lui	a0,0x5e000
ffffffc0504018ec:	cafff0ef          	jal	ra,ffffffc05040159a <pa2kva>
ffffffc0504018f0:	87aa                	mv	a5,a0
ffffffc0504018f2:	85be                	mv	a1,a5
ffffffc0504018f4:	8526                	mv	a0,s1
ffffffc0504018f6:	4ef000ef          	jal	ra,ffffffc0504025e4 <share_pgtable>
ffffffc0504018fa:	fd043783          	ld	a5,-48(s0)
ffffffc0504018fe:	63fc                	ld	a5,192(a5)
ffffffc050401900:	4601                	li	a2,0
ffffffc050401902:	85be                	mv	a1,a5
ffffffc050401904:	c0f00793          	li	a5,-1009
ffffffc050401908:	01c79513          	slli	a0,a5,0x1c
ffffffc05040190c:	501000ef          	jal	ra,ffffffc05040260c <alloc_page_helper>
ffffffc050401910:	872a                	mv	a4,a0
ffffffc050401912:	6785                	lui	a5,0x1
ffffffc050401914:	973e                	add	a4,a4,a5
ffffffc050401916:	fd043783          	ld	a5,-48(s0)
ffffffc05040191a:	e398                	sd	a4,0(a5)
ffffffc05040191c:	fd043783          	ld	a5,-48(s0)
ffffffc050401920:	63fc                	ld	a5,192(a5)
ffffffc050401922:	4605                	li	a2,1
ffffffc050401924:	85be                	mv	a1,a5
ffffffc050401926:	00f007b7          	lui	a5,0xf00
ffffffc05040192a:	07bd                	addi	a5,a5,15
ffffffc05040192c:	00c79513          	slli	a0,a5,0xc
ffffffc050401930:	4dd000ef          	jal	ra,ffffffc05040260c <alloc_page_helper>
ffffffc050401934:	872a                	mv	a4,a0
ffffffc050401936:	6785                	lui	a5,0x1
ffffffc050401938:	f0078793          	addi	a5,a5,-256 # f00 <_start-0xffffffc0503ff100>
ffffffc05040193c:	973e                	add	a4,a4,a5
ffffffc05040193e:	fd043783          	ld	a5,-48(s0)
ffffffc050401942:	e798                	sd	a4,8(a5)
ffffffc050401944:	0f0007b7          	lui	a5,0xf000
ffffffc050401948:	0ff78793          	addi	a5,a5,255 # f0000ff <_start-0xffffffc0413fff01>
ffffffc05040194c:	07a2                	slli	a5,a5,0x8
ffffffc05040194e:	fcf43423          	sd	a5,-56(s0)
ffffffc050401952:	fd043783          	ld	a5,-48(s0)
ffffffc050401956:	679c                	ld	a5,8(a5)
ffffffc050401958:	fcf43023          	sd	a5,-64(s0)
ffffffc05040195c:	fc042e23          	sw	zero,-36(s0)
ffffffc050401960:	a085                	j	ffffffc0504019c0 <do_exec+0x172>
ffffffc050401962:	fdc42783          	lw	a5,-36(s0)
ffffffc050401966:	2785                	addiw	a5,a5,1
ffffffc050401968:	2781                	sext.w	a5,a5
ffffffc05040196a:	0047979b          	slliw	a5,a5,0x4
ffffffc05040196e:	2781                	sext.w	a5,a5
ffffffc050401970:	86be                	mv	a3,a5
ffffffc050401972:	fdc42783          	lw	a5,-36(s0)
ffffffc050401976:	078e                	slli	a5,a5,0x3
ffffffc050401978:	fc043703          	ld	a4,-64(s0)
ffffffc05040197c:	97ba                	add	a5,a5,a4
ffffffc05040197e:	fc843703          	ld	a4,-56(s0)
ffffffc050401982:	9736                	add	a4,a4,a3
ffffffc050401984:	e398                	sd	a4,0(a5)
ffffffc050401986:	fd043783          	ld	a5,-48(s0)
ffffffc05040198a:	679c                	ld	a5,8(a5)
ffffffc05040198c:	fdc42703          	lw	a4,-36(s0)
ffffffc050401990:	2705                	addiw	a4,a4,1
ffffffc050401992:	2701                	sext.w	a4,a4
ffffffc050401994:	0047171b          	slliw	a4,a4,0x4
ffffffc050401998:	2701                	sext.w	a4,a4
ffffffc05040199a:	97ba                	add	a5,a5,a4
ffffffc05040199c:	86be                	mv	a3,a5
ffffffc05040199e:	fdc42783          	lw	a5,-36(s0)
ffffffc0504019a2:	078e                	slli	a5,a5,0x3
ffffffc0504019a4:	f7843703          	ld	a4,-136(s0)
ffffffc0504019a8:	97ba                	add	a5,a5,a4
ffffffc0504019aa:	639c                	ld	a5,0(a5)
ffffffc0504019ac:	4641                	li	a2,16
ffffffc0504019ae:	85be                	mv	a1,a5
ffffffc0504019b0:	8536                	mv	a0,a3
ffffffc0504019b2:	7a7000ef          	jal	ra,ffffffc050402958 <memcpy>
ffffffc0504019b6:	fdc42783          	lw	a5,-36(s0)
ffffffc0504019ba:	2785                	addiw	a5,a5,1
ffffffc0504019bc:	fcf42e23          	sw	a5,-36(s0)
ffffffc0504019c0:	fdc42703          	lw	a4,-36(s0)
ffffffc0504019c4:	f8442783          	lw	a5,-124(s0)
ffffffc0504019c8:	2701                	sext.w	a4,a4
ffffffc0504019ca:	2781                	sext.w	a5,a5
ffffffc0504019cc:	f8f74be3          	blt	a4,a5,ffffffc050401962 <do_exec+0x114>
ffffffc0504019d0:	fd043783          	ld	a5,-48(s0)
ffffffc0504019d4:	02878793          	addi	a5,a5,40
ffffffc0504019d8:	85be                	mv	a1,a5
ffffffc0504019da:	00003517          	auipc	a0,0x3
ffffffc0504019de:	03650513          	addi	a0,a0,54 # ffffffc050404a10 <ready_queue>
ffffffc0504019e2:	1b7000ef          	jal	ra,ffffffc050402398 <enqueue>
ffffffc0504019e6:	fd043783          	ld	a5,-48(s0)
ffffffc0504019ea:	03878793          	addi	a5,a5,56
ffffffc0504019ee:	853e                	mv	a0,a5
ffffffc0504019f0:	15d000ef          	jal	ra,ffffffc05040234c <list_init>
ffffffc0504019f4:	00022797          	auipc	a5,0x22
ffffffc0504019f8:	2cc78793          	addi	a5,a5,716 # ffffffc050423cc0 <process_id>
ffffffc0504019fc:	439c                	lw	a5,0(a5)
ffffffc0504019fe:	0017871b          	addiw	a4,a5,1
ffffffc050401a02:	0007069b          	sext.w	a3,a4
ffffffc050401a06:	00022717          	auipc	a4,0x22
ffffffc050401a0a:	2ba70713          	addi	a4,a4,698 # ffffffc050423cc0 <process_id>
ffffffc050401a0e:	c314                	sw	a3,0(a4)
ffffffc050401a10:	fd043703          	ld	a4,-48(s0)
ffffffc050401a14:	c73c                	sw	a5,72(a4)
ffffffc050401a16:	fd043783          	ld	a5,-48(s0)
ffffffc050401a1a:	4709                	li	a4,2
ffffffc050401a1c:	c7f8                	sw	a4,76(a5)
ffffffc050401a1e:	fd043783          	ld	a5,-48(s0)
ffffffc050401a22:	4709                	li	a4,2
ffffffc050401a24:	cbb8                	sw	a4,80(a5)
ffffffc050401a26:	fd043783          	ld	a5,-48(s0)
ffffffc050401a2a:	f8042703          	lw	a4,-128(s0)
ffffffc050401a2e:	cbf8                	sw	a4,84(a5)
ffffffc050401a30:	fd043783          	ld	a5,-48(s0)
ffffffc050401a34:	4705                	li	a4,1
ffffffc050401a36:	cfb8                	sw	a4,88(a5)
ffffffc050401a38:	fd043783          	ld	a5,-48(s0)
ffffffc050401a3c:	4705                	li	a4,1
ffffffc050401a3e:	cff8                	sw	a4,92(a5)
ffffffc050401a40:	fd043783          	ld	a5,-48(s0)
ffffffc050401a44:	0607a423          	sw	zero,104(a5)
ffffffc050401a48:	fa440713          	addi	a4,s0,-92
ffffffc050401a4c:	f9840793          	addi	a5,s0,-104
ffffffc050401a50:	863a                	mv	a2,a4
ffffffc050401a52:	85be                	mv	a1,a5
ffffffc050401a54:	f8843503          	ld	a0,-120(s0)
ffffffc050401a58:	049020ef          	jal	ra,ffffffc0504042a0 <get_elf_file>
ffffffc050401a5c:	f9843703          	ld	a4,-104(s0)
ffffffc050401a60:	fa442783          	lw	a5,-92(s0)
ffffffc050401a64:	0007859b          	sext.w	a1,a5
ffffffc050401a68:	fd043783          	ld	a5,-48(s0)
ffffffc050401a6c:	63fc                	ld	a5,192(a5)
ffffffc050401a6e:	00001697          	auipc	a3,0x1
ffffffc050401a72:	d2068693          	addi	a3,a3,-736 # ffffffc05040278e <elf_alloc_page_helper>
ffffffc050401a76:	863e                	mv	a2,a5
ffffffc050401a78:	853a                	mv	a0,a4
ffffffc050401a7a:	b97ff0ef          	jal	ra,ffffffc050401610 <load_elf>
ffffffc050401a7e:	faa43c23          	sd	a0,-72(s0)
ffffffc050401a82:	fd043783          	ld	a5,-48(s0)
ffffffc050401a86:	6388                	ld	a0,0(a5)
ffffffc050401a88:	fd043783          	ld	a5,-48(s0)
ffffffc050401a8c:	678c                	ld	a1,8(a5)
ffffffc050401a8e:	f8442783          	lw	a5,-124(s0)
ffffffc050401a92:	873e                	mv	a4,a5
ffffffc050401a94:	fc843783          	ld	a5,-56(s0)
ffffffc050401a98:	fd043683          	ld	a3,-48(s0)
ffffffc050401a9c:	fb843603          	ld	a2,-72(s0)
ffffffc050401aa0:	adbfe0ef          	jal	ra,ffffffc05040057a <init_pcb_stack>
ffffffc050401aa4:	02000513          	li	a0,32
ffffffc050401aa8:	2d9000ef          	jal	ra,ffffffc050402580 <kmalloc>
ffffffc050401aac:	faa43823          	sd	a0,-80(s0)
ffffffc050401ab0:	fd043783          	ld	a5,-48(s0)
ffffffc050401ab4:	6398                	ld	a4,0(a5)
ffffffc050401ab6:	77fd                	lui	a5,0xfffff
ffffffc050401ab8:	973e                	add	a4,a4,a5
ffffffc050401aba:	fb043783          	ld	a5,-80(s0)
ffffffc050401abe:	e798                	sd	a4,8(a5)
ffffffc050401ac0:	fb043783          	ld	a5,-80(s0)
ffffffc050401ac4:	679c                	ld	a5,8(a5)
ffffffc050401ac6:	853e                	mv	a0,a5
ffffffc050401ac8:	ab7ff0ef          	jal	ra,ffffffc05040157e <kva2pa>
ffffffc050401acc:	872a                	mv	a4,a0
ffffffc050401ace:	fb043783          	ld	a5,-80(s0)
ffffffc050401ad2:	e398                	sd	a4,0(a5)
ffffffc050401ad4:	fb043783          	ld	a5,-80(s0)
ffffffc050401ad8:	07c1                	addi	a5,a5,16
ffffffc050401ada:	853e                	mv	a0,a5
ffffffc050401adc:	071000ef          	jal	ra,ffffffc05040234c <list_init>
ffffffc050401ae0:	02000513          	li	a0,32
ffffffc050401ae4:	29d000ef          	jal	ra,ffffffc050402580 <kmalloc>
ffffffc050401ae8:	faa43423          	sd	a0,-88(s0)
ffffffc050401aec:	fd043783          	ld	a5,-48(s0)
ffffffc050401af0:	6398                	ld	a4,0(a5)
ffffffc050401af2:	77fd                	lui	a5,0xfffff
ffffffc050401af4:	973e                	add	a4,a4,a5
ffffffc050401af6:	fa843783          	ld	a5,-88(s0)
ffffffc050401afa:	e798                	sd	a4,8(a5)
ffffffc050401afc:	fa843783          	ld	a5,-88(s0)
ffffffc050401b00:	679c                	ld	a5,8(a5)
ffffffc050401b02:	853e                	mv	a0,a5
ffffffc050401b04:	a7bff0ef          	jal	ra,ffffffc05040157e <kva2pa>
ffffffc050401b08:	872a                	mv	a4,a0
ffffffc050401b0a:	fa843783          	ld	a5,-88(s0)
ffffffc050401b0e:	e398                	sd	a4,0(a5)
ffffffc050401b10:	fa843783          	ld	a5,-88(s0)
ffffffc050401b14:	07c1                	addi	a5,a5,16
ffffffc050401b16:	853e                	mv	a0,a5
ffffffc050401b18:	035000ef          	jal	ra,ffffffc05040234c <list_init>
ffffffc050401b1c:	fd043783          	ld	a5,-48(s0)
ffffffc050401b20:	0c878793          	addi	a5,a5,200 # fffffffffffff0c8 <__BSS_END__+0x3fafbd6d80>
ffffffc050401b24:	853e                	mv	a0,a5
ffffffc050401b26:	027000ef          	jal	ra,ffffffc05040234c <list_init>
ffffffc050401b2a:	fd043783          	ld	a5,-48(s0)
ffffffc050401b2e:	0c878713          	addi	a4,a5,200
ffffffc050401b32:	fb043783          	ld	a5,-80(s0)
ffffffc050401b36:	07c1                	addi	a5,a5,16
ffffffc050401b38:	85be                	mv	a1,a5
ffffffc050401b3a:	853a                	mv	a0,a4
ffffffc050401b3c:	05d000ef          	jal	ra,ffffffc050402398 <enqueue>
ffffffc050401b40:	fd043783          	ld	a5,-48(s0)
ffffffc050401b44:	0c878713          	addi	a4,a5,200
ffffffc050401b48:	fa843783          	ld	a5,-88(s0)
ffffffc050401b4c:	07c1                	addi	a5,a5,16
ffffffc050401b4e:	85be                	mv	a1,a5
ffffffc050401b50:	853a                	mv	a0,a4
ffffffc050401b52:	047000ef          	jal	ra,ffffffc050402398 <enqueue>
ffffffc050401b56:	fd043783          	ld	a5,-48(s0)
ffffffc050401b5a:	47bc                	lw	a5,72(a5)
ffffffc050401b5c:	853e                	mv	a0,a5
ffffffc050401b5e:	60aa                	ld	ra,136(sp)
ffffffc050401b60:	640a                	ld	s0,128(sp)
ffffffc050401b62:	74e6                	ld	s1,120(sp)
ffffffc050401b64:	6149                	addi	sp,sp,144
ffffffc050401b66:	8082                	ret

ffffffc050401b68 <do_scheduler>:
ffffffc050401b68:	7179                	addi	sp,sp,-48
ffffffc050401b6a:	f406                	sd	ra,40(sp)
ffffffc050401b6c:	f022                	sd	s0,32(sp)
ffffffc050401b6e:	1800                	addi	s0,sp,48
ffffffc050401b70:	726000ef          	jal	ra,ffffffc050402296 <check_timer>
ffffffc050401b74:	00003517          	auipc	a0,0x3
ffffffc050401b78:	e9c50513          	addi	a0,a0,-356 # ffffffc050404a10 <ready_queue>
ffffffc050401b7c:	7f6000ef          	jal	ra,ffffffc050402372 <is_list_empty>
ffffffc050401b80:	87aa                	mv	a5,a0
ffffffc050401b82:	ef91                	bnez	a5,ffffffc050401b9e <do_scheduler+0x36>
ffffffc050401b84:	00003517          	auipc	a0,0x3
ffffffc050401b88:	e8c50513          	addi	a0,a0,-372 # ffffffc050404a10 <ready_queue>
ffffffc050401b8c:	04f000ef          	jal	ra,ffffffc0504023da <dequeue>
ffffffc050401b90:	fea43423          	sd	a0,-24(s0)
ffffffc050401b94:	fe843783          	ld	a5,-24(s0)
ffffffc050401b98:	fd878793          	addi	a5,a5,-40
ffffffc050401b9c:	a029                	j	ffffffc050401ba6 <do_scheduler+0x3e>
ffffffc050401b9e:	00003797          	auipc	a5,0x3
ffffffc050401ba2:	e9278793          	addi	a5,a5,-366 # ffffffc050404a30 <pid0_pcb>
ffffffc050401ba6:	fef43023          	sd	a5,-32(s0)
ffffffc050401baa:	00025797          	auipc	a5,0x25
ffffffc050401bae:	95678793          	addi	a5,a5,-1706 # ffffffc050426500 <current_running>
ffffffc050401bb2:	639c                	ld	a5,0(a5)
ffffffc050401bb4:	fcf43c23          	sd	a5,-40(s0)
ffffffc050401bb8:	00025797          	auipc	a5,0x25
ffffffc050401bbc:	94878793          	addi	a5,a5,-1720 # ffffffc050426500 <current_running>
ffffffc050401bc0:	639c                	ld	a5,0(a5)
ffffffc050401bc2:	4bbc                	lw	a5,80(a5)
ffffffc050401bc4:	873e                	mv	a4,a5
ffffffc050401bc6:	4785                	li	a5,1
ffffffc050401bc8:	02f71e63          	bne	a4,a5,ffffffc050401c04 <do_scheduler+0x9c>
ffffffc050401bcc:	00025797          	auipc	a5,0x25
ffffffc050401bd0:	93478793          	addi	a5,a5,-1740 # ffffffc050426500 <current_running>
ffffffc050401bd4:	639c                	ld	a5,0(a5)
ffffffc050401bd6:	47bc                	lw	a5,72(a5)
ffffffc050401bd8:	c795                	beqz	a5,ffffffc050401c04 <do_scheduler+0x9c>
ffffffc050401bda:	00025797          	auipc	a5,0x25
ffffffc050401bde:	92678793          	addi	a5,a5,-1754 # ffffffc050426500 <current_running>
ffffffc050401be2:	639c                	ld	a5,0(a5)
ffffffc050401be4:	02878793          	addi	a5,a5,40
ffffffc050401be8:	85be                	mv	a1,a5
ffffffc050401bea:	00003517          	auipc	a0,0x3
ffffffc050401bee:	e2650513          	addi	a0,a0,-474 # ffffffc050404a10 <ready_queue>
ffffffc050401bf2:	7a6000ef          	jal	ra,ffffffc050402398 <enqueue>
ffffffc050401bf6:	00025797          	auipc	a5,0x25
ffffffc050401bfa:	90a78793          	addi	a5,a5,-1782 # ffffffc050426500 <current_running>
ffffffc050401bfe:	639c                	ld	a5,0(a5)
ffffffc050401c00:	4709                	li	a4,2
ffffffc050401c02:	cbb8                	sw	a4,80(a5)
ffffffc050401c04:	fe043783          	ld	a5,-32(s0)
ffffffc050401c08:	4705                	li	a4,1
ffffffc050401c0a:	cbb8                	sw	a4,80(a5)
ffffffc050401c0c:	00025797          	auipc	a5,0x25
ffffffc050401c10:	8f478793          	addi	a5,a5,-1804 # ffffffc050426500 <current_running>
ffffffc050401c14:	fe043703          	ld	a4,-32(s0)
ffffffc050401c18:	e398                	sd	a4,0(a5)
ffffffc050401c1a:	00025797          	auipc	a5,0x25
ffffffc050401c1e:	8e678793          	addi	a5,a5,-1818 # ffffffc050426500 <current_running>
ffffffc050401c22:	639c                	ld	a5,0(a5)
ffffffc050401c24:	47b8                	lw	a4,72(a5)
ffffffc050401c26:	00022797          	auipc	a5,0x22
ffffffc050401c2a:	09a78793          	addi	a5,a5,154 # ffffffc050423cc0 <process_id>
ffffffc050401c2e:	c398                	sw	a4,0(a5)
ffffffc050401c30:	00025797          	auipc	a5,0x25
ffffffc050401c34:	8d078793          	addi	a5,a5,-1840 # ffffffc050426500 <current_running>
ffffffc050401c38:	639c                	ld	a5,0(a5)
ffffffc050401c3a:	4fb8                	lw	a4,88(a5)
ffffffc050401c3c:	00025797          	auipc	a5,0x25
ffffffc050401c40:	8c478793          	addi	a5,a5,-1852 # ffffffc050426500 <current_running>
ffffffc050401c44:	639c                	ld	a5,0(a5)
ffffffc050401c46:	4ffc                	lw	a5,92(a5)
ffffffc050401c48:	85be                	mv	a1,a5
ffffffc050401c4a:	853a                	mv	a0,a4
ffffffc050401c4c:	b34ff0ef          	jal	ra,ffffffc050400f80 <vt100_move_cursor>
ffffffc050401c50:	00025797          	auipc	a5,0x25
ffffffc050401c54:	8b078793          	addi	a5,a5,-1872 # ffffffc050426500 <current_running>
ffffffc050401c58:	639c                	ld	a5,0(a5)
ffffffc050401c5a:	4fb8                	lw	a4,88(a5)
ffffffc050401c5c:	00025797          	auipc	a5,0x25
ffffffc050401c60:	89c78793          	addi	a5,a5,-1892 # ffffffc0504264f8 <screen_cursor_x>
ffffffc050401c64:	c398                	sw	a4,0(a5)
ffffffc050401c66:	00025797          	auipc	a5,0x25
ffffffc050401c6a:	89a78793          	addi	a5,a5,-1894 # ffffffc050426500 <current_running>
ffffffc050401c6e:	639c                	ld	a5,0(a5)
ffffffc050401c70:	4ff8                	lw	a4,92(a5)
ffffffc050401c72:	00025797          	auipc	a5,0x25
ffffffc050401c76:	88a78793          	addi	a5,a5,-1910 # ffffffc0504264fc <screen_cursor_y>
ffffffc050401c7a:	c398                	sw	a4,0(a5)
ffffffc050401c7c:	00025797          	auipc	a5,0x25
ffffffc050401c80:	88478793          	addi	a5,a5,-1916 # ffffffc050426500 <current_running>
ffffffc050401c84:	639c                	ld	a5,0(a5)
ffffffc050401c86:	63fc                	ld	a5,192(a5)
ffffffc050401c88:	853e                	mv	a0,a5
ffffffc050401c8a:	8f5ff0ef          	jal	ra,ffffffc05040157e <kva2pa>
ffffffc050401c8e:	87aa                	mv	a5,a0
ffffffc050401c90:	83b1                	srli	a5,a5,0xc
ffffffc050401c92:	fcf43823          	sd	a5,-48(s0)
ffffffc050401c96:	00025797          	auipc	a5,0x25
ffffffc050401c9a:	86a78793          	addi	a5,a5,-1942 # ffffffc050426500 <current_running>
ffffffc050401c9e:	639c                	ld	a5,0(a5)
ffffffc050401ca0:	47bc                	lw	a5,72(a5)
ffffffc050401ca2:	2781                	sext.w	a5,a5
ffffffc050401ca4:	fd043603          	ld	a2,-48(s0)
ffffffc050401ca8:	85be                	mv	a1,a5
ffffffc050401caa:	4521                	li	a0,8
ffffffc050401cac:	88dff0ef          	jal	ra,ffffffc050401538 <set_satp>
ffffffc050401cb0:	877ff0ef          	jal	ra,ffffffc050401526 <local_flush_tlb_all>
ffffffc050401cb4:	00025797          	auipc	a5,0x25
ffffffc050401cb8:	84c78793          	addi	a5,a5,-1972 # ffffffc050426500 <current_running>
ffffffc050401cbc:	639c                	ld	a5,0(a5)
ffffffc050401cbe:	85be                	mv	a1,a5
ffffffc050401cc0:	fd843503          	ld	a0,-40(s0)
ffffffc050401cc4:	c08fe0ef          	jal	ra,ffffffc0504000cc <switch_to>
ffffffc050401cc8:	0001                	nop
ffffffc050401cca:	70a2                	ld	ra,40(sp)
ffffffc050401ccc:	7402                	ld	s0,32(sp)
ffffffc050401cce:	6145                	addi	sp,sp,48
ffffffc050401cd0:	8082                	ret

ffffffc050401cd2 <do_sleep>:
ffffffc050401cd2:	1101                	addi	sp,sp,-32
ffffffc050401cd4:	ec06                	sd	ra,24(sp)
ffffffc050401cd6:	e822                	sd	s0,16(sp)
ffffffc050401cd8:	1000                	addi	s0,sp,32
ffffffc050401cda:	87aa                	mv	a5,a0
ffffffc050401cdc:	fef42623          	sw	a5,-20(s0)
ffffffc050401ce0:	00025797          	auipc	a5,0x25
ffffffc050401ce4:	82078793          	addi	a5,a5,-2016 # ffffffc050426500 <current_running>
ffffffc050401ce8:	639c                	ld	a5,0(a5)
ffffffc050401cea:	0407a823          	sw	zero,80(a5)
ffffffc050401cee:	83018793          	addi	a5,gp,-2000 # ffffffc050423ce8 <time_base>
ffffffc050401cf2:	439c                	lw	a5,0(a5)
ffffffc050401cf4:	fec42703          	lw	a4,-20(s0)
ffffffc050401cf8:	02f707bb          	mulw	a5,a4,a5
ffffffc050401cfc:	2781                	sext.w	a5,a5
ffffffc050401cfe:	1782                	slli	a5,a5,0x20
ffffffc050401d00:	9381                	srli	a5,a5,0x20
ffffffc050401d02:	853e                	mv	a0,a5
ffffffc050401d04:	548000ef          	jal	ra,ffffffc05040224c <create_timer>
ffffffc050401d08:	e61ff0ef          	jal	ra,ffffffc050401b68 <do_scheduler>
ffffffc050401d0c:	0001                	nop
ffffffc050401d0e:	60e2                	ld	ra,24(sp)
ffffffc050401d10:	6442                	ld	s0,16(sp)
ffffffc050401d12:	6105                	addi	sp,sp,32
ffffffc050401d14:	8082                	ret

ffffffc050401d16 <do_block>:
ffffffc050401d16:	1101                	addi	sp,sp,-32
ffffffc050401d18:	ec06                	sd	ra,24(sp)
ffffffc050401d1a:	e822                	sd	s0,16(sp)
ffffffc050401d1c:	1000                	addi	s0,sp,32
ffffffc050401d1e:	fea43423          	sd	a0,-24(s0)
ffffffc050401d22:	feb43023          	sd	a1,-32(s0)
ffffffc050401d26:	fe843583          	ld	a1,-24(s0)
ffffffc050401d2a:	fe043503          	ld	a0,-32(s0)
ffffffc050401d2e:	66a000ef          	jal	ra,ffffffc050402398 <enqueue>
ffffffc050401d32:	00024797          	auipc	a5,0x24
ffffffc050401d36:	7ce78793          	addi	a5,a5,1998 # ffffffc050426500 <current_running>
ffffffc050401d3a:	639c                	ld	a5,0(a5)
ffffffc050401d3c:	0407a823          	sw	zero,80(a5)
ffffffc050401d40:	e29ff0ef          	jal	ra,ffffffc050401b68 <do_scheduler>
ffffffc050401d44:	0001                	nop
ffffffc050401d46:	60e2                	ld	ra,24(sp)
ffffffc050401d48:	6442                	ld	s0,16(sp)
ffffffc050401d4a:	6105                	addi	sp,sp,32
ffffffc050401d4c:	8082                	ret

ffffffc050401d4e <do_unblock>:
ffffffc050401d4e:	7179                	addi	sp,sp,-48
ffffffc050401d50:	f406                	sd	ra,40(sp)
ffffffc050401d52:	f022                	sd	s0,32(sp)
ffffffc050401d54:	1800                	addi	s0,sp,48
ffffffc050401d56:	fca43c23          	sd	a0,-40(s0)
ffffffc050401d5a:	fd843783          	ld	a5,-40(s0)
ffffffc050401d5e:	fef43423          	sd	a5,-24(s0)
ffffffc050401d62:	fe843783          	ld	a5,-24(s0)
ffffffc050401d66:	fd878793          	addi	a5,a5,-40
ffffffc050401d6a:	fef43023          	sd	a5,-32(s0)
ffffffc050401d6e:	fd843503          	ld	a0,-40(s0)
ffffffc050401d72:	6c8000ef          	jal	ra,ffffffc05040243a <delete_item>
ffffffc050401d76:	fe043783          	ld	a5,-32(s0)
ffffffc050401d7a:	4709                	li	a4,2
ffffffc050401d7c:	cbb8                	sw	a4,80(a5)
ffffffc050401d7e:	fd843583          	ld	a1,-40(s0)
ffffffc050401d82:	00003517          	auipc	a0,0x3
ffffffc050401d86:	c8e50513          	addi	a0,a0,-882 # ffffffc050404a10 <ready_queue>
ffffffc050401d8a:	60e000ef          	jal	ra,ffffffc050402398 <enqueue>
ffffffc050401d8e:	0001                	nop
ffffffc050401d90:	70a2                	ld	ra,40(sp)
ffffffc050401d92:	7402                	ld	s0,32(sp)
ffffffc050401d94:	6145                	addi	sp,sp,48
ffffffc050401d96:	8082                	ret

ffffffc050401d98 <do_kill>:
ffffffc050401d98:	7139                	addi	sp,sp,-64
ffffffc050401d9a:	fc06                	sd	ra,56(sp)
ffffffc050401d9c:	f822                	sd	s0,48(sp)
ffffffc050401d9e:	0080                	addi	s0,sp,64
ffffffc050401da0:	87aa                	mv	a5,a0
ffffffc050401da2:	fcf42623          	sw	a5,-52(s0)
ffffffc050401da6:	fcc42783          	lw	a5,-52(s0)
ffffffc050401daa:	37fd                	addiw	a5,a5,-1
ffffffc050401dac:	0007871b          	sext.w	a4,a5
ffffffc050401db0:	0d800793          	li	a5,216
ffffffc050401db4:	02f70733          	mul	a4,a4,a5
ffffffc050401db8:	00024797          	auipc	a5,0x24
ffffffc050401dbc:	75078793          	addi	a5,a5,1872 # ffffffc050426508 <pcb>
ffffffc050401dc0:	97ba                	add	a5,a5,a4
ffffffc050401dc2:	fef43023          	sd	a5,-32(s0)
ffffffc050401dc6:	fcc42783          	lw	a5,-52(s0)
ffffffc050401dca:	0007871b          	sext.w	a4,a5
ffffffc050401dce:	4785                	li	a5,1
ffffffc050401dd0:	00f71a63          	bne	a4,a5,ffffffc050401de4 <do_kill+0x4c>
ffffffc050401dd4:	00003517          	auipc	a0,0x3
ffffffc050401dd8:	9fc50513          	addi	a0,a0,-1540 # ffffffc0504047d0 <__FUNCTION__.1462+0xb0>
ffffffc050401ddc:	70e010ef          	jal	ra,ffffffc0504034ea <prints>
ffffffc050401de0:	4781                	li	a5,0
ffffffc050401de2:	a8f9                	j	ffffffc050401ec0 <do_kill+0x128>
ffffffc050401de4:	fe043783          	ld	a5,-32(s0)
ffffffc050401de8:	47bc                	lw	a5,72(a5)
ffffffc050401dea:	e7b1                	bnez	a5,ffffffc050401e36 <do_kill+0x9e>
ffffffc050401dec:	00003517          	auipc	a0,0x3
ffffffc050401df0:	a1450513          	addi	a0,a0,-1516 # ffffffc050404800 <__FUNCTION__.1462+0xe0>
ffffffc050401df4:	6f6010ef          	jal	ra,ffffffc0504034ea <prints>
ffffffc050401df8:	4781                	li	a5,0
ffffffc050401dfa:	a0d9                	j	ffffffc050401ec0 <do_kill+0x128>
ffffffc050401dfc:	fe043783          	ld	a5,-32(s0)
ffffffc050401e00:	03878793          	addi	a5,a5,56
ffffffc050401e04:	853e                	mv	a0,a5
ffffffc050401e06:	5d4000ef          	jal	ra,ffffffc0504023da <dequeue>
ffffffc050401e0a:	fca43c23          	sd	a0,-40(s0)
ffffffc050401e0e:	fd843783          	ld	a5,-40(s0)
ffffffc050401e12:	fd878793          	addi	a5,a5,-40
ffffffc050401e16:	fcf43823          	sd	a5,-48(s0)
ffffffc050401e1a:	fd043783          	ld	a5,-48(s0)
ffffffc050401e1e:	4bbc                	lw	a5,80(a5)
ffffffc050401e20:	873e                	mv	a4,a5
ffffffc050401e22:	4791                	li	a5,4
ffffffc050401e24:	00f70963          	beq	a4,a5,ffffffc050401e36 <do_kill+0x9e>
ffffffc050401e28:	fd043783          	ld	a5,-48(s0)
ffffffc050401e2c:	02878793          	addi	a5,a5,40
ffffffc050401e30:	853e                	mv	a0,a5
ffffffc050401e32:	f1dff0ef          	jal	ra,ffffffc050401d4e <do_unblock>
ffffffc050401e36:	fe043783          	ld	a5,-32(s0)
ffffffc050401e3a:	03878793          	addi	a5,a5,56
ffffffc050401e3e:	853e                	mv	a0,a5
ffffffc050401e40:	532000ef          	jal	ra,ffffffc050402372 <is_list_empty>
ffffffc050401e44:	87aa                	mv	a5,a0
ffffffc050401e46:	dbdd                	beqz	a5,ffffffc050401dfc <do_kill+0x64>
ffffffc050401e48:	fe042623          	sw	zero,-20(s0)
ffffffc050401e4c:	a00d                	j	ffffffc050401e6e <do_kill+0xd6>
ffffffc050401e4e:	fe043703          	ld	a4,-32(s0)
ffffffc050401e52:	fec42783          	lw	a5,-20(s0)
ffffffc050401e56:	07b9                	addi	a5,a5,14
ffffffc050401e58:	078e                	slli	a5,a5,0x3
ffffffc050401e5a:	97ba                	add	a5,a5,a4
ffffffc050401e5c:	639c                	ld	a5,0(a5)
ffffffc050401e5e:	853e                	mv	a0,a5
ffffffc050401e60:	79a010ef          	jal	ra,ffffffc0504035fa <do_mutex_lock_release>
ffffffc050401e64:	fec42783          	lw	a5,-20(s0)
ffffffc050401e68:	2785                	addiw	a5,a5,1
ffffffc050401e6a:	fef42623          	sw	a5,-20(s0)
ffffffc050401e6e:	fe043783          	ld	a5,-32(s0)
ffffffc050401e72:	57b8                	lw	a4,104(a5)
ffffffc050401e74:	fec42783          	lw	a5,-20(s0)
ffffffc050401e78:	2781                	sext.w	a5,a5
ffffffc050401e7a:	fce7cae3          	blt	a5,a4,ffffffc050401e4e <do_kill+0xb6>
ffffffc050401e7e:	fe043783          	ld	a5,-32(s0)
ffffffc050401e82:	4bfc                	lw	a5,84(a5)
ffffffc050401e84:	e399                	bnez	a5,ffffffc050401e8a <do_kill+0xf2>
ffffffc050401e86:	478d                	li	a5,3
ffffffc050401e88:	a011                	j	ffffffc050401e8c <do_kill+0xf4>
ffffffc050401e8a:	4791                	li	a5,4
ffffffc050401e8c:	fe043703          	ld	a4,-32(s0)
ffffffc050401e90:	cb3c                	sw	a5,80(a4)
ffffffc050401e92:	fe043783          	ld	a5,-32(s0)
ffffffc050401e96:	0407a423          	sw	zero,72(a5)
ffffffc050401e9a:	fe043783          	ld	a5,-32(s0)
ffffffc050401e9e:	0c878793          	addi	a5,a5,200
ffffffc050401ea2:	853e                	mv	a0,a5
ffffffc050401ea4:	1f5000ef          	jal	ra,ffffffc050402898 <freePage>
ffffffc050401ea8:	00024797          	auipc	a5,0x24
ffffffc050401eac:	65878793          	addi	a5,a5,1624 # ffffffc050426500 <current_running>
ffffffc050401eb0:	639c                	ld	a5,0(a5)
ffffffc050401eb2:	fe043703          	ld	a4,-32(s0)
ffffffc050401eb6:	00f71463          	bne	a4,a5,ffffffc050401ebe <do_kill+0x126>
ffffffc050401eba:	cafff0ef          	jal	ra,ffffffc050401b68 <do_scheduler>
ffffffc050401ebe:	4785                	li	a5,1
ffffffc050401ec0:	853e                	mv	a0,a5
ffffffc050401ec2:	70e2                	ld	ra,56(sp)
ffffffc050401ec4:	7442                	ld	s0,48(sp)
ffffffc050401ec6:	6121                	addi	sp,sp,64
ffffffc050401ec8:	8082                	ret

ffffffc050401eca <do_getpid>:
ffffffc050401eca:	1141                	addi	sp,sp,-16
ffffffc050401ecc:	e422                	sd	s0,8(sp)
ffffffc050401ece:	0800                	addi	s0,sp,16
ffffffc050401ed0:	00024797          	auipc	a5,0x24
ffffffc050401ed4:	63078793          	addi	a5,a5,1584 # ffffffc050426500 <current_running>
ffffffc050401ed8:	639c                	ld	a5,0(a5)
ffffffc050401eda:	47bc                	lw	a5,72(a5)
ffffffc050401edc:	853e                	mv	a0,a5
ffffffc050401ede:	6422                	ld	s0,8(sp)
ffffffc050401ee0:	0141                	addi	sp,sp,16
ffffffc050401ee2:	8082                	ret

ffffffc050401ee4 <do_waitpid>:
ffffffc050401ee4:	1101                	addi	sp,sp,-32
ffffffc050401ee6:	ec06                	sd	ra,24(sp)
ffffffc050401ee8:	e822                	sd	s0,16(sp)
ffffffc050401eea:	1000                	addi	s0,sp,32
ffffffc050401eec:	87aa                	mv	a5,a0
ffffffc050401eee:	fef42623          	sw	a5,-20(s0)
ffffffc050401ef2:	fec42783          	lw	a5,-20(s0)
ffffffc050401ef6:	37fd                	addiw	a5,a5,-1
ffffffc050401ef8:	0007869b          	sext.w	a3,a5
ffffffc050401efc:	00024717          	auipc	a4,0x24
ffffffc050401f00:	60c70713          	addi	a4,a4,1548 # ffffffc050426508 <pcb>
ffffffc050401f04:	0d800793          	li	a5,216
ffffffc050401f08:	02f687b3          	mul	a5,a3,a5
ffffffc050401f0c:	97ba                	add	a5,a5,a4
ffffffc050401f0e:	4bbc                	lw	a5,80(a5)
ffffffc050401f10:	873e                	mv	a4,a5
ffffffc050401f12:	4791                	li	a5,4
ffffffc050401f14:	06f70163          	beq	a4,a5,ffffffc050401f76 <do_waitpid+0x92>
ffffffc050401f18:	fec42783          	lw	a5,-20(s0)
ffffffc050401f1c:	37fd                	addiw	a5,a5,-1
ffffffc050401f1e:	0007869b          	sext.w	a3,a5
ffffffc050401f22:	00024717          	auipc	a4,0x24
ffffffc050401f26:	5e670713          	addi	a4,a4,1510 # ffffffc050426508 <pcb>
ffffffc050401f2a:	0d800793          	li	a5,216
ffffffc050401f2e:	02f687b3          	mul	a5,a3,a5
ffffffc050401f32:	97ba                	add	a5,a5,a4
ffffffc050401f34:	4bbc                	lw	a5,80(a5)
ffffffc050401f36:	873e                	mv	a4,a5
ffffffc050401f38:	478d                	li	a5,3
ffffffc050401f3a:	02f70e63          	beq	a4,a5,ffffffc050401f76 <do_waitpid+0x92>
ffffffc050401f3e:	00024797          	auipc	a5,0x24
ffffffc050401f42:	5c278793          	addi	a5,a5,1474 # ffffffc050426500 <current_running>
ffffffc050401f46:	639c                	ld	a5,0(a5)
ffffffc050401f48:	02878693          	addi	a3,a5,40
ffffffc050401f4c:	fec42783          	lw	a5,-20(s0)
ffffffc050401f50:	37fd                	addiw	a5,a5,-1
ffffffc050401f52:	0007871b          	sext.w	a4,a5
ffffffc050401f56:	0d800793          	li	a5,216
ffffffc050401f5a:	02f707b3          	mul	a5,a4,a5
ffffffc050401f5e:	03078713          	addi	a4,a5,48
ffffffc050401f62:	00024797          	auipc	a5,0x24
ffffffc050401f66:	5a678793          	addi	a5,a5,1446 # ffffffc050426508 <pcb>
ffffffc050401f6a:	97ba                	add	a5,a5,a4
ffffffc050401f6c:	07a1                	addi	a5,a5,8
ffffffc050401f6e:	85be                	mv	a1,a5
ffffffc050401f70:	8536                	mv	a0,a3
ffffffc050401f72:	da5ff0ef          	jal	ra,ffffffc050401d16 <do_block>
ffffffc050401f76:	fec42783          	lw	a5,-20(s0)
ffffffc050401f7a:	853e                	mv	a0,a5
ffffffc050401f7c:	60e2                	ld	ra,24(sp)
ffffffc050401f7e:	6442                	ld	s0,16(sp)
ffffffc050401f80:	6105                	addi	sp,sp,32
ffffffc050401f82:	8082                	ret

ffffffc050401f84 <do_exit>:
ffffffc050401f84:	7179                	addi	sp,sp,-48
ffffffc050401f86:	f406                	sd	ra,40(sp)
ffffffc050401f88:	f022                	sd	s0,32(sp)
ffffffc050401f8a:	1800                	addi	s0,sp,48
ffffffc050401f8c:	00024797          	auipc	a5,0x24
ffffffc050401f90:	57478793          	addi	a5,a5,1396 # ffffffc050426500 <current_running>
ffffffc050401f94:	639c                	ld	a5,0(a5)
ffffffc050401f96:	fef43023          	sd	a5,-32(s0)
ffffffc050401f9a:	a835                	j	ffffffc050401fd6 <do_exit+0x52>
ffffffc050401f9c:	fe043783          	ld	a5,-32(s0)
ffffffc050401fa0:	03878793          	addi	a5,a5,56
ffffffc050401fa4:	853e                	mv	a0,a5
ffffffc050401fa6:	434000ef          	jal	ra,ffffffc0504023da <dequeue>
ffffffc050401faa:	fca43c23          	sd	a0,-40(s0)
ffffffc050401fae:	fd843783          	ld	a5,-40(s0)
ffffffc050401fb2:	fd878793          	addi	a5,a5,-40
ffffffc050401fb6:	fcf43823          	sd	a5,-48(s0)
ffffffc050401fba:	fd043783          	ld	a5,-48(s0)
ffffffc050401fbe:	4bbc                	lw	a5,80(a5)
ffffffc050401fc0:	873e                	mv	a4,a5
ffffffc050401fc2:	4791                	li	a5,4
ffffffc050401fc4:	00f70963          	beq	a4,a5,ffffffc050401fd6 <do_exit+0x52>
ffffffc050401fc8:	fd043783          	ld	a5,-48(s0)
ffffffc050401fcc:	02878793          	addi	a5,a5,40
ffffffc050401fd0:	853e                	mv	a0,a5
ffffffc050401fd2:	d7dff0ef          	jal	ra,ffffffc050401d4e <do_unblock>
ffffffc050401fd6:	fe043783          	ld	a5,-32(s0)
ffffffc050401fda:	03878793          	addi	a5,a5,56
ffffffc050401fde:	853e                	mv	a0,a5
ffffffc050401fe0:	392000ef          	jal	ra,ffffffc050402372 <is_list_empty>
ffffffc050401fe4:	87aa                	mv	a5,a0
ffffffc050401fe6:	dbdd                	beqz	a5,ffffffc050401f9c <do_exit+0x18>
ffffffc050401fe8:	fe042623          	sw	zero,-20(s0)
ffffffc050401fec:	a00d                	j	ffffffc05040200e <do_exit+0x8a>
ffffffc050401fee:	fe043703          	ld	a4,-32(s0)
ffffffc050401ff2:	fec42783          	lw	a5,-20(s0)
ffffffc050401ff6:	07b9                	addi	a5,a5,14
ffffffc050401ff8:	078e                	slli	a5,a5,0x3
ffffffc050401ffa:	97ba                	add	a5,a5,a4
ffffffc050401ffc:	639c                	ld	a5,0(a5)
ffffffc050401ffe:	853e                	mv	a0,a5
ffffffc050402000:	5fa010ef          	jal	ra,ffffffc0504035fa <do_mutex_lock_release>
ffffffc050402004:	fec42783          	lw	a5,-20(s0)
ffffffc050402008:	2785                	addiw	a5,a5,1
ffffffc05040200a:	fef42623          	sw	a5,-20(s0)
ffffffc05040200e:	fe043783          	ld	a5,-32(s0)
ffffffc050402012:	57b8                	lw	a4,104(a5)
ffffffc050402014:	fec42783          	lw	a5,-20(s0)
ffffffc050402018:	2781                	sext.w	a5,a5
ffffffc05040201a:	fce7cae3          	blt	a5,a4,ffffffc050401fee <do_exit+0x6a>
ffffffc05040201e:	fe043783          	ld	a5,-32(s0)
ffffffc050402022:	4bfc                	lw	a5,84(a5)
ffffffc050402024:	e399                	bnez	a5,ffffffc05040202a <do_exit+0xa6>
ffffffc050402026:	478d                	li	a5,3
ffffffc050402028:	a011                	j	ffffffc05040202c <do_exit+0xa8>
ffffffc05040202a:	4791                	li	a5,4
ffffffc05040202c:	fe043703          	ld	a4,-32(s0)
ffffffc050402030:	cb3c                	sw	a5,80(a4)
ffffffc050402032:	fe043783          	ld	a5,-32(s0)
ffffffc050402036:	0407a423          	sw	zero,72(a5)
ffffffc05040203a:	fe043783          	ld	a5,-32(s0)
ffffffc05040203e:	0c878793          	addi	a5,a5,200
ffffffc050402042:	853e                	mv	a0,a5
ffffffc050402044:	055000ef          	jal	ra,ffffffc050402898 <freePage>
ffffffc050402048:	b21ff0ef          	jal	ra,ffffffc050401b68 <do_scheduler>
ffffffc05040204c:	0001                	nop
ffffffc05040204e:	70a2                	ld	ra,40(sp)
ffffffc050402050:	7402                	ld	s0,32(sp)
ffffffc050402052:	6145                	addi	sp,sp,48
ffffffc050402054:	8082                	ret

ffffffc050402056 <do_process_show>:
ffffffc050402056:	7139                	addi	sp,sp,-64
ffffffc050402058:	fc06                	sd	ra,56(sp)
ffffffc05040205a:	f822                	sd	s0,48(sp)
ffffffc05040205c:	0080                	addi	s0,sp,64
ffffffc05040205e:	00002517          	auipc	a0,0x2
ffffffc050402062:	7ca50513          	addi	a0,a0,1994 # ffffffc050404828 <__FUNCTION__.1462+0x108>
ffffffc050402066:	484010ef          	jal	ra,ffffffc0504034ea <prints>
ffffffc05040206a:	00003797          	auipc	a5,0x3
ffffffc05040206e:	80678793          	addi	a5,a5,-2042 # ffffffc050404870 <__FUNCTION__.1462+0x150>
ffffffc050402072:	638c                	ld	a1,0(a5)
ffffffc050402074:	6790                	ld	a2,8(a5)
ffffffc050402076:	6b94                	ld	a3,16(a5)
ffffffc050402078:	6f98                	ld	a4,24(a5)
ffffffc05040207a:	739c                	ld	a5,32(a5)
ffffffc05040207c:	fcb43023          	sd	a1,-64(s0)
ffffffc050402080:	fcc43423          	sd	a2,-56(s0)
ffffffc050402084:	fcd43823          	sd	a3,-48(s0)
ffffffc050402088:	fce43c23          	sd	a4,-40(s0)
ffffffc05040208c:	fef43023          	sd	a5,-32(s0)
ffffffc050402090:	fe042623          	sw	zero,-20(s0)
ffffffc050402094:	a8ad                	j	ffffffc05040210e <do_process_show+0xb8>
ffffffc050402096:	00024717          	auipc	a4,0x24
ffffffc05040209a:	47270713          	addi	a4,a4,1138 # ffffffc050426508 <pcb>
ffffffc05040209e:	fec42683          	lw	a3,-20(s0)
ffffffc0504020a2:	0d800793          	li	a5,216
ffffffc0504020a6:	02f687b3          	mul	a5,a3,a5
ffffffc0504020aa:	97ba                	add	a5,a5,a4
ffffffc0504020ac:	47bc                	lw	a5,72(a5)
ffffffc0504020ae:	cbb9                	beqz	a5,ffffffc050402104 <do_process_show+0xae>
ffffffc0504020b0:	00024717          	auipc	a4,0x24
ffffffc0504020b4:	45870713          	addi	a4,a4,1112 # ffffffc050426508 <pcb>
ffffffc0504020b8:	fec42683          	lw	a3,-20(s0)
ffffffc0504020bc:	0d800793          	li	a5,216
ffffffc0504020c0:	02f687b3          	mul	a5,a3,a5
ffffffc0504020c4:	97ba                	add	a5,a5,a4
ffffffc0504020c6:	47b0                	lw	a2,72(a5)
ffffffc0504020c8:	00024717          	auipc	a4,0x24
ffffffc0504020cc:	44070713          	addi	a4,a4,1088 # ffffffc050426508 <pcb>
ffffffc0504020d0:	fec42683          	lw	a3,-20(s0)
ffffffc0504020d4:	0d800793          	li	a5,216
ffffffc0504020d8:	02f687b3          	mul	a5,a3,a5
ffffffc0504020dc:	97ba                	add	a5,a5,a4
ffffffc0504020de:	4bbc                	lw	a5,80(a5)
ffffffc0504020e0:	1782                	slli	a5,a5,0x20
ffffffc0504020e2:	9381                	srli	a5,a5,0x20
ffffffc0504020e4:	078e                	slli	a5,a5,0x3
ffffffc0504020e6:	ff040713          	addi	a4,s0,-16
ffffffc0504020ea:	97ba                	add	a5,a5,a4
ffffffc0504020ec:	fd07b703          	ld	a4,-48(a5)
ffffffc0504020f0:	fec42783          	lw	a5,-20(s0)
ffffffc0504020f4:	86ba                	mv	a3,a4
ffffffc0504020f6:	85be                	mv	a1,a5
ffffffc0504020f8:	00002517          	auipc	a0,0x2
ffffffc0504020fc:	75850513          	addi	a0,a0,1880 # ffffffc050404850 <__FUNCTION__.1462+0x130>
ffffffc050402100:	3ea010ef          	jal	ra,ffffffc0504034ea <prints>
ffffffc050402104:	fec42783          	lw	a5,-20(s0)
ffffffc050402108:	2785                	addiw	a5,a5,1
ffffffc05040210a:	fef42623          	sw	a5,-20(s0)
ffffffc05040210e:	fec42783          	lw	a5,-20(s0)
ffffffc050402112:	0007871b          	sext.w	a4,a5
ffffffc050402116:	47bd                	li	a5,15
ffffffc050402118:	f6e7dfe3          	bge	a5,a4,ffffffc050402096 <do_process_show+0x40>
ffffffc05040211c:	0001                	nop
ffffffc05040211e:	0001                	nop
ffffffc050402120:	70e2                	ld	ra,56(sp)
ffffffc050402122:	7442                	ld	s0,48(sp)
ffffffc050402124:	6121                	addi	sp,sp,64
ffffffc050402126:	8082                	ret

ffffffc050402128 <do_ls>:
ffffffc050402128:	1101                	addi	sp,sp,-32
ffffffc05040212a:	ec06                	sd	ra,24(sp)
ffffffc05040212c:	e822                	sd	s0,16(sp)
ffffffc05040212e:	1000                	addi	s0,sp,32
ffffffc050402130:	4785                	li	a5,1
ffffffc050402132:	fef42623          	sw	a5,-20(s0)
ffffffc050402136:	a80d                	j	ffffffc050402168 <do_ls+0x40>
ffffffc050402138:	00022697          	auipc	a3,0x22
ffffffc05040213c:	b3868693          	addi	a3,a3,-1224 # ffffffc050423c70 <elf_files>
ffffffc050402140:	fec42703          	lw	a4,-20(s0)
ffffffc050402144:	87ba                	mv	a5,a4
ffffffc050402146:	0786                	slli	a5,a5,0x1
ffffffc050402148:	97ba                	add	a5,a5,a4
ffffffc05040214a:	078e                	slli	a5,a5,0x3
ffffffc05040214c:	97b6                	add	a5,a5,a3
ffffffc05040214e:	639c                	ld	a5,0(a5)
ffffffc050402150:	85be                	mv	a1,a5
ffffffc050402152:	00002517          	auipc	a0,0x2
ffffffc050402156:	74650513          	addi	a0,a0,1862 # ffffffc050404898 <__FUNCTION__.1462+0x178>
ffffffc05040215a:	390010ef          	jal	ra,ffffffc0504034ea <prints>
ffffffc05040215e:	fec42783          	lw	a5,-20(s0)
ffffffc050402162:	2785                	addiw	a5,a5,1
ffffffc050402164:	fef42623          	sw	a5,-20(s0)
ffffffc050402168:	fec42783          	lw	a5,-20(s0)
ffffffc05040216c:	0007871b          	sext.w	a4,a5
ffffffc050402170:	4789                	li	a5,2
ffffffc050402172:	fce7d3e3          	bge	a5,a4,ffffffc050402138 <do_ls+0x10>
ffffffc050402176:	00002517          	auipc	a0,0x2
ffffffc05040217a:	72a50513          	addi	a0,a0,1834 # ffffffc0504048a0 <__FUNCTION__.1462+0x180>
ffffffc05040217e:	36c010ef          	jal	ra,ffffffc0504034ea <prints>
ffffffc050402182:	0001                	nop
ffffffc050402184:	60e2                	ld	ra,24(sp)
ffffffc050402186:	6442                	ld	s0,16(sp)
ffffffc050402188:	6105                	addi	sp,sp,32
ffffffc05040218a:	8082                	ret

ffffffc05040218c <get_ticks>:
ffffffc05040218c:	1141                	addi	sp,sp,-16
ffffffc05040218e:	e422                	sd	s0,8(sp)
ffffffc050402190:	0800                	addi	s0,sp,16
ffffffc050402192:	c0102773          	rdtime	a4
ffffffc050402196:	82818793          	addi	a5,gp,-2008 # ffffffc050423ce0 <time_elapsed>
ffffffc05040219a:	e398                	sd	a4,0(a5)
ffffffc05040219c:	82818793          	addi	a5,gp,-2008 # ffffffc050423ce0 <time_elapsed>
ffffffc0504021a0:	639c                	ld	a5,0(a5)
ffffffc0504021a2:	853e                	mv	a0,a5
ffffffc0504021a4:	6422                	ld	s0,8(sp)
ffffffc0504021a6:	0141                	addi	sp,sp,16
ffffffc0504021a8:	8082                	ret

ffffffc0504021aa <get_wall_time>:
ffffffc0504021aa:	1101                	addi	sp,sp,-32
ffffffc0504021ac:	ec06                	sd	ra,24(sp)
ffffffc0504021ae:	e822                	sd	s0,16(sp)
ffffffc0504021b0:	1000                	addi	s0,sp,32
ffffffc0504021b2:	fea43423          	sd	a0,-24(s0)
ffffffc0504021b6:	fd7ff0ef          	jal	ra,ffffffc05040218c <get_ticks>
ffffffc0504021ba:	87aa                	mv	a5,a0
ffffffc0504021bc:	0007871b          	sext.w	a4,a5
ffffffc0504021c0:	fe843783          	ld	a5,-24(s0)
ffffffc0504021c4:	c398                	sw	a4,0(a5)
ffffffc0504021c6:	038000ef          	jal	ra,ffffffc0504021fe <get_time_base>
ffffffc0504021ca:	87aa                	mv	a5,a0
ffffffc0504021cc:	2781                	sext.w	a5,a5
ffffffc0504021ce:	853e                	mv	a0,a5
ffffffc0504021d0:	60e2                	ld	ra,24(sp)
ffffffc0504021d2:	6442                	ld	s0,16(sp)
ffffffc0504021d4:	6105                	addi	sp,sp,32
ffffffc0504021d6:	8082                	ret

ffffffc0504021d8 <get_timer>:
ffffffc0504021d8:	1141                	addi	sp,sp,-16
ffffffc0504021da:	e406                	sd	ra,8(sp)
ffffffc0504021dc:	e022                	sd	s0,0(sp)
ffffffc0504021de:	0800                	addi	s0,sp,16
ffffffc0504021e0:	fadff0ef          	jal	ra,ffffffc05040218c <get_ticks>
ffffffc0504021e4:	872a                	mv	a4,a0
ffffffc0504021e6:	83018793          	addi	a5,gp,-2000 # ffffffc050423ce8 <time_base>
ffffffc0504021ea:	439c                	lw	a5,0(a5)
ffffffc0504021ec:	1782                	slli	a5,a5,0x20
ffffffc0504021ee:	9381                	srli	a5,a5,0x20
ffffffc0504021f0:	02f757b3          	divu	a5,a4,a5
ffffffc0504021f4:	853e                	mv	a0,a5
ffffffc0504021f6:	60a2                	ld	ra,8(sp)
ffffffc0504021f8:	6402                	ld	s0,0(sp)
ffffffc0504021fa:	0141                	addi	sp,sp,16
ffffffc0504021fc:	8082                	ret

ffffffc0504021fe <get_time_base>:
ffffffc0504021fe:	1141                	addi	sp,sp,-16
ffffffc050402200:	e422                	sd	s0,8(sp)
ffffffc050402202:	0800                	addi	s0,sp,16
ffffffc050402204:	83018793          	addi	a5,gp,-2000 # ffffffc050423ce8 <time_base>
ffffffc050402208:	439c                	lw	a5,0(a5)
ffffffc05040220a:	1782                	slli	a5,a5,0x20
ffffffc05040220c:	9381                	srli	a5,a5,0x20
ffffffc05040220e:	853e                	mv	a0,a5
ffffffc050402210:	6422                	ld	s0,8(sp)
ffffffc050402212:	0141                	addi	sp,sp,16
ffffffc050402214:	8082                	ret

ffffffc050402216 <latency>:
ffffffc050402216:	7179                	addi	sp,sp,-48
ffffffc050402218:	f406                	sd	ra,40(sp)
ffffffc05040221a:	f022                	sd	s0,32(sp)
ffffffc05040221c:	1800                	addi	s0,sp,48
ffffffc05040221e:	fca43c23          	sd	a0,-40(s0)
ffffffc050402222:	fb7ff0ef          	jal	ra,ffffffc0504021d8 <get_timer>
ffffffc050402226:	fea43423          	sd	a0,-24(s0)
ffffffc05040222a:	0001                	nop
ffffffc05040222c:	fadff0ef          	jal	ra,ffffffc0504021d8 <get_timer>
ffffffc050402230:	872a                	mv	a4,a0
ffffffc050402232:	fe843783          	ld	a5,-24(s0)
ffffffc050402236:	40f707b3          	sub	a5,a4,a5
ffffffc05040223a:	fd843703          	ld	a4,-40(s0)
ffffffc05040223e:	fee7e7e3          	bltu	a5,a4,ffffffc05040222c <latency+0x16>
ffffffc050402242:	0001                	nop
ffffffc050402244:	70a2                	ld	ra,40(sp)
ffffffc050402246:	7402                	ld	s0,32(sp)
ffffffc050402248:	6145                	addi	sp,sp,48
ffffffc05040224a:	8082                	ret

ffffffc05040224c <create_timer>:
ffffffc05040224c:	1101                	addi	sp,sp,-32
ffffffc05040224e:	ec06                	sd	ra,24(sp)
ffffffc050402250:	e822                	sd	s0,16(sp)
ffffffc050402252:	1000                	addi	s0,sp,32
ffffffc050402254:	fea43423          	sd	a0,-24(s0)
ffffffc050402258:	f35ff0ef          	jal	ra,ffffffc05040218c <get_ticks>
ffffffc05040225c:	86aa                	mv	a3,a0
ffffffc05040225e:	00024797          	auipc	a5,0x24
ffffffc050402262:	2a278793          	addi	a5,a5,674 # ffffffc050426500 <current_running>
ffffffc050402266:	639c                	ld	a5,0(a5)
ffffffc050402268:	fe843703          	ld	a4,-24(s0)
ffffffc05040226c:	9736                	add	a4,a4,a3
ffffffc05040226e:	f3b8                	sd	a4,96(a5)
ffffffc050402270:	00024797          	auipc	a5,0x24
ffffffc050402274:	29078793          	addi	a5,a5,656 # ffffffc050426500 <current_running>
ffffffc050402278:	639c                	ld	a5,0(a5)
ffffffc05040227a:	02878793          	addi	a5,a5,40
ffffffc05040227e:	85be                	mv	a1,a5
ffffffc050402280:	00002517          	auipc	a0,0x2
ffffffc050402284:	7a050513          	addi	a0,a0,1952 # ffffffc050404a20 <sleep_queue>
ffffffc050402288:	110000ef          	jal	ra,ffffffc050402398 <enqueue>
ffffffc05040228c:	0001                	nop
ffffffc05040228e:	60e2                	ld	ra,24(sp)
ffffffc050402290:	6442                	ld	s0,16(sp)
ffffffc050402292:	6105                	addi	sp,sp,32
ffffffc050402294:	8082                	ret

ffffffc050402296 <check_timer>:
ffffffc050402296:	7179                	addi	sp,sp,-48
ffffffc050402298:	f406                	sd	ra,40(sp)
ffffffc05040229a:	f022                	sd	s0,32(sp)
ffffffc05040229c:	1800                	addi	s0,sp,48
ffffffc05040229e:	00002797          	auipc	a5,0x2
ffffffc0504022a2:	78278793          	addi	a5,a5,1922 # ffffffc050404a20 <sleep_queue>
ffffffc0504022a6:	639c                	ld	a5,0(a5)
ffffffc0504022a8:	fef43423          	sd	a5,-24(s0)
ffffffc0504022ac:	a83d                	j	ffffffc0504022ea <check_timer+0x54>
ffffffc0504022ae:	fe843783          	ld	a5,-24(s0)
ffffffc0504022b2:	fef43023          	sd	a5,-32(s0)
ffffffc0504022b6:	fe043783          	ld	a5,-32(s0)
ffffffc0504022ba:	fd878793          	addi	a5,a5,-40
ffffffc0504022be:	fcf43c23          	sd	a5,-40(s0)
ffffffc0504022c2:	fe843783          	ld	a5,-24(s0)
ffffffc0504022c6:	639c                	ld	a5,0(a5)
ffffffc0504022c8:	fef43423          	sd	a5,-24(s0)
ffffffc0504022cc:	ec1ff0ef          	jal	ra,ffffffc05040218c <get_ticks>
ffffffc0504022d0:	872a                	mv	a4,a0
ffffffc0504022d2:	fd843783          	ld	a5,-40(s0)
ffffffc0504022d6:	73bc                	ld	a5,96(a5)
ffffffc0504022d8:	00f76963          	bltu	a4,a5,ffffffc0504022ea <check_timer+0x54>
ffffffc0504022dc:	fd843783          	ld	a5,-40(s0)
ffffffc0504022e0:	02878793          	addi	a5,a5,40
ffffffc0504022e4:	853e                	mv	a0,a5
ffffffc0504022e6:	a69ff0ef          	jal	ra,ffffffc050401d4e <do_unblock>
ffffffc0504022ea:	00002517          	auipc	a0,0x2
ffffffc0504022ee:	73650513          	addi	a0,a0,1846 # ffffffc050404a20 <sleep_queue>
ffffffc0504022f2:	080000ef          	jal	ra,ffffffc050402372 <is_list_empty>
ffffffc0504022f6:	87aa                	mv	a5,a0
ffffffc0504022f8:	eb89                	bnez	a5,ffffffc05040230a <check_timer+0x74>
ffffffc0504022fa:	fe843703          	ld	a4,-24(s0)
ffffffc0504022fe:	00002797          	auipc	a5,0x2
ffffffc050402302:	72278793          	addi	a5,a5,1826 # ffffffc050404a20 <sleep_queue>
ffffffc050402306:	faf714e3          	bne	a4,a5,ffffffc0504022ae <check_timer+0x18>
ffffffc05040230a:	0001                	nop
ffffffc05040230c:	70a2                	ld	ra,40(sp)
ffffffc05040230e:	7402                	ld	s0,32(sp)
ffffffc050402310:	6145                	addi	sp,sp,48
ffffffc050402312:	8082                	ret

ffffffc050402314 <smp_init>:
ffffffc050402314:	1141                	addi	sp,sp,-16
ffffffc050402316:	e422                	sd	s0,8(sp)
ffffffc050402318:	0800                	addi	s0,sp,16
ffffffc05040231a:	0001                	nop
ffffffc05040231c:	6422                	ld	s0,8(sp)
ffffffc05040231e:	0141                	addi	sp,sp,16
ffffffc050402320:	8082                	ret

ffffffc050402322 <wakeup_other_hart>:
ffffffc050402322:	1141                	addi	sp,sp,-16
ffffffc050402324:	e422                	sd	s0,8(sp)
ffffffc050402326:	0800                	addi	s0,sp,16
ffffffc050402328:	0001                	nop
ffffffc05040232a:	6422                	ld	s0,8(sp)
ffffffc05040232c:	0141                	addi	sp,sp,16
ffffffc05040232e:	8082                	ret

ffffffc050402330 <lock_kernel>:
ffffffc050402330:	1141                	addi	sp,sp,-16
ffffffc050402332:	e422                	sd	s0,8(sp)
ffffffc050402334:	0800                	addi	s0,sp,16
ffffffc050402336:	0001                	nop
ffffffc050402338:	6422                	ld	s0,8(sp)
ffffffc05040233a:	0141                	addi	sp,sp,16
ffffffc05040233c:	8082                	ret

ffffffc05040233e <unlock_kernel>:
ffffffc05040233e:	1141                	addi	sp,sp,-16
ffffffc050402340:	e422                	sd	s0,8(sp)
ffffffc050402342:	0800                	addi	s0,sp,16
ffffffc050402344:	0001                	nop
ffffffc050402346:	6422                	ld	s0,8(sp)
ffffffc050402348:	0141                	addi	sp,sp,16
ffffffc05040234a:	8082                	ret

ffffffc05040234c <list_init>:
ffffffc05040234c:	1101                	addi	sp,sp,-32
ffffffc05040234e:	ec22                	sd	s0,24(sp)
ffffffc050402350:	1000                	addi	s0,sp,32
ffffffc050402352:	fea43423          	sd	a0,-24(s0)
ffffffc050402356:	fe843783          	ld	a5,-24(s0)
ffffffc05040235a:	fe843703          	ld	a4,-24(s0)
ffffffc05040235e:	e398                	sd	a4,0(a5)
ffffffc050402360:	fe843783          	ld	a5,-24(s0)
ffffffc050402364:	fe843703          	ld	a4,-24(s0)
ffffffc050402368:	e798                	sd	a4,8(a5)
ffffffc05040236a:	0001                	nop
ffffffc05040236c:	6462                	ld	s0,24(sp)
ffffffc05040236e:	6105                	addi	sp,sp,32
ffffffc050402370:	8082                	ret

ffffffc050402372 <is_list_empty>:
ffffffc050402372:	1101                	addi	sp,sp,-32
ffffffc050402374:	ec22                	sd	s0,24(sp)
ffffffc050402376:	1000                	addi	s0,sp,32
ffffffc050402378:	fea43423          	sd	a0,-24(s0)
ffffffc05040237c:	fe843783          	ld	a5,-24(s0)
ffffffc050402380:	639c                	ld	a5,0(a5)
ffffffc050402382:	fe843703          	ld	a4,-24(s0)
ffffffc050402386:	00f71463          	bne	a4,a5,ffffffc05040238e <is_list_empty+0x1c>
ffffffc05040238a:	4785                	li	a5,1
ffffffc05040238c:	a011                	j	ffffffc050402390 <is_list_empty+0x1e>
ffffffc05040238e:	4781                	li	a5,0
ffffffc050402390:	853e                	mv	a0,a5
ffffffc050402392:	6462                	ld	s0,24(sp)
ffffffc050402394:	6105                	addi	sp,sp,32
ffffffc050402396:	8082                	ret

ffffffc050402398 <enqueue>:
ffffffc050402398:	1101                	addi	sp,sp,-32
ffffffc05040239a:	ec22                	sd	s0,24(sp)
ffffffc05040239c:	1000                	addi	s0,sp,32
ffffffc05040239e:	fea43423          	sd	a0,-24(s0)
ffffffc0504023a2:	feb43023          	sd	a1,-32(s0)
ffffffc0504023a6:	fe843783          	ld	a5,-24(s0)
ffffffc0504023aa:	679c                	ld	a5,8(a5)
ffffffc0504023ac:	fe043703          	ld	a4,-32(s0)
ffffffc0504023b0:	e398                	sd	a4,0(a5)
ffffffc0504023b2:	fe843783          	ld	a5,-24(s0)
ffffffc0504023b6:	6798                	ld	a4,8(a5)
ffffffc0504023b8:	fe043783          	ld	a5,-32(s0)
ffffffc0504023bc:	e798                	sd	a4,8(a5)
ffffffc0504023be:	fe043783          	ld	a5,-32(s0)
ffffffc0504023c2:	fe843703          	ld	a4,-24(s0)
ffffffc0504023c6:	e398                	sd	a4,0(a5)
ffffffc0504023c8:	fe843783          	ld	a5,-24(s0)
ffffffc0504023cc:	fe043703          	ld	a4,-32(s0)
ffffffc0504023d0:	e798                	sd	a4,8(a5)
ffffffc0504023d2:	0001                	nop
ffffffc0504023d4:	6462                	ld	s0,24(sp)
ffffffc0504023d6:	6105                	addi	sp,sp,32
ffffffc0504023d8:	8082                	ret

ffffffc0504023da <dequeue>:
ffffffc0504023da:	7179                	addi	sp,sp,-48
ffffffc0504023dc:	f422                	sd	s0,40(sp)
ffffffc0504023de:	1800                	addi	s0,sp,48
ffffffc0504023e0:	fca43c23          	sd	a0,-40(s0)
ffffffc0504023e4:	fd843783          	ld	a5,-40(s0)
ffffffc0504023e8:	639c                	ld	a5,0(a5)
ffffffc0504023ea:	fd843703          	ld	a4,-40(s0)
ffffffc0504023ee:	00f71463          	bne	a4,a5,ffffffc0504023f6 <dequeue+0x1c>
ffffffc0504023f2:	4781                	li	a5,0
ffffffc0504023f4:	a83d                	j	ffffffc050402432 <dequeue+0x58>
ffffffc0504023f6:	fd843783          	ld	a5,-40(s0)
ffffffc0504023fa:	639c                	ld	a5,0(a5)
ffffffc0504023fc:	fef43423          	sd	a5,-24(s0)
ffffffc050402400:	fd843783          	ld	a5,-40(s0)
ffffffc050402404:	639c                	ld	a5,0(a5)
ffffffc050402406:	6398                	ld	a4,0(a5)
ffffffc050402408:	fd843783          	ld	a5,-40(s0)
ffffffc05040240c:	e398                	sd	a4,0(a5)
ffffffc05040240e:	fd843783          	ld	a5,-40(s0)
ffffffc050402412:	639c                	ld	a5,0(a5)
ffffffc050402414:	fd843703          	ld	a4,-40(s0)
ffffffc050402418:	e798                	sd	a4,8(a5)
ffffffc05040241a:	fe843783          	ld	a5,-24(s0)
ffffffc05040241e:	0007b023          	sd	zero,0(a5)
ffffffc050402422:	fe843783          	ld	a5,-24(s0)
ffffffc050402426:	6398                	ld	a4,0(a5)
ffffffc050402428:	fe843783          	ld	a5,-24(s0)
ffffffc05040242c:	e798                	sd	a4,8(a5)
ffffffc05040242e:	fe843783          	ld	a5,-24(s0)
ffffffc050402432:	853e                	mv	a0,a5
ffffffc050402434:	7422                	ld	s0,40(sp)
ffffffc050402436:	6145                	addi	sp,sp,48
ffffffc050402438:	8082                	ret

ffffffc05040243a <delete_item>:
ffffffc05040243a:	1101                	addi	sp,sp,-32
ffffffc05040243c:	ec22                	sd	s0,24(sp)
ffffffc05040243e:	1000                	addi	s0,sp,32
ffffffc050402440:	fea43423          	sd	a0,-24(s0)
ffffffc050402444:	fe843783          	ld	a5,-24(s0)
ffffffc050402448:	679c                	ld	a5,8(a5)
ffffffc05040244a:	cf8d                	beqz	a5,ffffffc050402484 <delete_item+0x4a>
ffffffc05040244c:	fe843783          	ld	a5,-24(s0)
ffffffc050402450:	639c                	ld	a5,0(a5)
ffffffc050402452:	cb8d                	beqz	a5,ffffffc050402484 <delete_item+0x4a>
ffffffc050402454:	fe843783          	ld	a5,-24(s0)
ffffffc050402458:	679c                	ld	a5,8(a5)
ffffffc05040245a:	fe843703          	ld	a4,-24(s0)
ffffffc05040245e:	6318                	ld	a4,0(a4)
ffffffc050402460:	e398                	sd	a4,0(a5)
ffffffc050402462:	fe843783          	ld	a5,-24(s0)
ffffffc050402466:	639c                	ld	a5,0(a5)
ffffffc050402468:	fe843703          	ld	a4,-24(s0)
ffffffc05040246c:	6718                	ld	a4,8(a4)
ffffffc05040246e:	e798                	sd	a4,8(a5)
ffffffc050402470:	fe843783          	ld	a5,-24(s0)
ffffffc050402474:	0007b023          	sd	zero,0(a5)
ffffffc050402478:	fe843783          	ld	a5,-24(s0)
ffffffc05040247c:	6398                	ld	a4,0(a5)
ffffffc05040247e:	fe843783          	ld	a5,-24(s0)
ffffffc050402482:	e798                	sd	a4,8(a5)
ffffffc050402484:	0001                	nop
ffffffc050402486:	6462                	ld	s0,24(sp)
ffffffc050402488:	6105                	addi	sp,sp,32
ffffffc05040248a:	8082                	ret

ffffffc05040248c <kva2pa>:
ffffffc05040248c:	1101                	addi	sp,sp,-32
ffffffc05040248e:	ec22                	sd	s0,24(sp)
ffffffc050402490:	1000                	addi	s0,sp,32
ffffffc050402492:	fea43423          	sd	a0,-24(s0)
ffffffc050402496:	fe843703          	ld	a4,-24(s0)
ffffffc05040249a:	4785                	li	a5,1
ffffffc05040249c:	179a                	slli	a5,a5,0x26
ffffffc05040249e:	97ba                	add	a5,a5,a4
ffffffc0504024a0:	853e                	mv	a0,a5
ffffffc0504024a2:	6462                	ld	s0,24(sp)
ffffffc0504024a4:	6105                	addi	sp,sp,32
ffffffc0504024a6:	8082                	ret

ffffffc0504024a8 <pa2kva>:
ffffffc0504024a8:	1101                	addi	sp,sp,-32
ffffffc0504024aa:	ec22                	sd	s0,24(sp)
ffffffc0504024ac:	1000                	addi	s0,sp,32
ffffffc0504024ae:	fea43423          	sd	a0,-24(s0)
ffffffc0504024b2:	fe843703          	ld	a4,-24(s0)
ffffffc0504024b6:	57fd                	li	a5,-1
ffffffc0504024b8:	179a                	slli	a5,a5,0x26
ffffffc0504024ba:	97ba                	add	a5,a5,a4
ffffffc0504024bc:	853e                	mv	a0,a5
ffffffc0504024be:	6462                	ld	s0,24(sp)
ffffffc0504024c0:	6105                	addi	sp,sp,32
ffffffc0504024c2:	8082                	ret

ffffffc0504024c4 <get_pa>:
ffffffc0504024c4:	1101                	addi	sp,sp,-32
ffffffc0504024c6:	ec22                	sd	s0,24(sp)
ffffffc0504024c8:	1000                	addi	s0,sp,32
ffffffc0504024ca:	fea43423          	sd	a0,-24(s0)
ffffffc0504024ce:	fe843783          	ld	a5,-24(s0)
ffffffc0504024d2:	83a9                	srli	a5,a5,0xa
ffffffc0504024d4:	07b2                	slli	a5,a5,0xc
ffffffc0504024d6:	853e                	mv	a0,a5
ffffffc0504024d8:	6462                	ld	s0,24(sp)
ffffffc0504024da:	6105                	addi	sp,sp,32
ffffffc0504024dc:	8082                	ret

ffffffc0504024de <set_pfn>:
ffffffc0504024de:	1101                	addi	sp,sp,-32
ffffffc0504024e0:	ec22                	sd	s0,24(sp)
ffffffc0504024e2:	1000                	addi	s0,sp,32
ffffffc0504024e4:	fea43423          	sd	a0,-24(s0)
ffffffc0504024e8:	feb43023          	sd	a1,-32(s0)
ffffffc0504024ec:	fe843783          	ld	a5,-24(s0)
ffffffc0504024f0:	639c                	ld	a5,0(a5)
ffffffc0504024f2:	3ff7f713          	andi	a4,a5,1023
ffffffc0504024f6:	fe843783          	ld	a5,-24(s0)
ffffffc0504024fa:	e398                	sd	a4,0(a5)
ffffffc0504024fc:	fe843783          	ld	a5,-24(s0)
ffffffc050402500:	6398                	ld	a4,0(a5)
ffffffc050402502:	fe043783          	ld	a5,-32(s0)
ffffffc050402506:	07aa                	slli	a5,a5,0xa
ffffffc050402508:	8f5d                	or	a4,a4,a5
ffffffc05040250a:	fe843783          	ld	a5,-24(s0)
ffffffc05040250e:	e398                	sd	a4,0(a5)
ffffffc050402510:	0001                	nop
ffffffc050402512:	6462                	ld	s0,24(sp)
ffffffc050402514:	6105                	addi	sp,sp,32
ffffffc050402516:	8082                	ret

ffffffc050402518 <set_attribute>:
ffffffc050402518:	1101                	addi	sp,sp,-32
ffffffc05040251a:	ec22                	sd	s0,24(sp)
ffffffc05040251c:	1000                	addi	s0,sp,32
ffffffc05040251e:	fea43423          	sd	a0,-24(s0)
ffffffc050402522:	feb43023          	sd	a1,-32(s0)
ffffffc050402526:	fe843783          	ld	a5,-24(s0)
ffffffc05040252a:	639c                	ld	a5,0(a5)
ffffffc05040252c:	c007f713          	andi	a4,a5,-1024
ffffffc050402530:	fe843783          	ld	a5,-24(s0)
ffffffc050402534:	e398                	sd	a4,0(a5)
ffffffc050402536:	fe843783          	ld	a5,-24(s0)
ffffffc05040253a:	6398                	ld	a4,0(a5)
ffffffc05040253c:	fe043783          	ld	a5,-32(s0)
ffffffc050402540:	8f5d                	or	a4,a4,a5
ffffffc050402542:	fe843783          	ld	a5,-24(s0)
ffffffc050402546:	e398                	sd	a4,0(a5)
ffffffc050402548:	0001                	nop
ffffffc05040254a:	6462                	ld	s0,24(sp)
ffffffc05040254c:	6105                	addi	sp,sp,32
ffffffc05040254e:	8082                	ret

ffffffc050402550 <allocPage>:
ffffffc050402550:	1141                	addi	sp,sp,-16
ffffffc050402552:	e422                	sd	s0,8(sp)
ffffffc050402554:	0800                	addi	s0,sp,16
ffffffc050402556:	00021797          	auipc	a5,0x21
ffffffc05040255a:	77278793          	addi	a5,a5,1906 # ffffffc050423cc8 <memCurr>
ffffffc05040255e:	6398                	ld	a4,0(a5)
ffffffc050402560:	6785                	lui	a5,0x1
ffffffc050402562:	973e                	add	a4,a4,a5
ffffffc050402564:	00021797          	auipc	a5,0x21
ffffffc050402568:	76478793          	addi	a5,a5,1892 # ffffffc050423cc8 <memCurr>
ffffffc05040256c:	e398                	sd	a4,0(a5)
ffffffc05040256e:	00021797          	auipc	a5,0x21
ffffffc050402572:	75a78793          	addi	a5,a5,1882 # ffffffc050423cc8 <memCurr>
ffffffc050402576:	639c                	ld	a5,0(a5)
ffffffc050402578:	853e                	mv	a0,a5
ffffffc05040257a:	6422                	ld	s0,8(sp)
ffffffc05040257c:	0141                	addi	sp,sp,16
ffffffc05040257e:	8082                	ret

ffffffc050402580 <kmalloc>:
ffffffc050402580:	7179                	addi	sp,sp,-48
ffffffc050402582:	f422                	sd	s0,40(sp)
ffffffc050402584:	1800                	addi	s0,sp,48
ffffffc050402586:	fca43c23          	sd	a0,-40(s0)
ffffffc05040258a:	00021797          	auipc	a5,0x21
ffffffc05040258e:	73e78793          	addi	a5,a5,1854 # ffffffc050423cc8 <memCurr>
ffffffc050402592:	639c                	ld	a5,0(a5)
ffffffc050402594:	078d                	addi	a5,a5,3
ffffffc050402596:	9bf1                	andi	a5,a5,-4
ffffffc050402598:	fef43423          	sd	a5,-24(s0)
ffffffc05040259c:	fe843703          	ld	a4,-24(s0)
ffffffc0504025a0:	fd843783          	ld	a5,-40(s0)
ffffffc0504025a4:	973e                	add	a4,a4,a5
ffffffc0504025a6:	00021797          	auipc	a5,0x21
ffffffc0504025aa:	72278793          	addi	a5,a5,1826 # ffffffc050423cc8 <memCurr>
ffffffc0504025ae:	e398                	sd	a4,0(a5)
ffffffc0504025b0:	fe843783          	ld	a5,-24(s0)
ffffffc0504025b4:	853e                	mv	a0,a5
ffffffc0504025b6:	7422                	ld	s0,40(sp)
ffffffc0504025b8:	6145                	addi	sp,sp,48
ffffffc0504025ba:	8082                	ret

ffffffc0504025bc <shm_page_get>:
ffffffc0504025bc:	1101                	addi	sp,sp,-32
ffffffc0504025be:	ec22                	sd	s0,24(sp)
ffffffc0504025c0:	1000                	addi	s0,sp,32
ffffffc0504025c2:	87aa                	mv	a5,a0
ffffffc0504025c4:	fef42623          	sw	a5,-20(s0)
ffffffc0504025c8:	0001                	nop
ffffffc0504025ca:	853e                	mv	a0,a5
ffffffc0504025cc:	6462                	ld	s0,24(sp)
ffffffc0504025ce:	6105                	addi	sp,sp,32
ffffffc0504025d0:	8082                	ret

ffffffc0504025d2 <shm_page_dt>:
ffffffc0504025d2:	1101                	addi	sp,sp,-32
ffffffc0504025d4:	ec22                	sd	s0,24(sp)
ffffffc0504025d6:	1000                	addi	s0,sp,32
ffffffc0504025d8:	fea43423          	sd	a0,-24(s0)
ffffffc0504025dc:	0001                	nop
ffffffc0504025de:	6462                	ld	s0,24(sp)
ffffffc0504025e0:	6105                	addi	sp,sp,32
ffffffc0504025e2:	8082                	ret

ffffffc0504025e4 <share_pgtable>:
ffffffc0504025e4:	1101                	addi	sp,sp,-32
ffffffc0504025e6:	ec06                	sd	ra,24(sp)
ffffffc0504025e8:	e822                	sd	s0,16(sp)
ffffffc0504025ea:	1000                	addi	s0,sp,32
ffffffc0504025ec:	fea43423          	sd	a0,-24(s0)
ffffffc0504025f0:	feb43023          	sd	a1,-32(s0)
ffffffc0504025f4:	6605                	lui	a2,0x1
ffffffc0504025f6:	fe043583          	ld	a1,-32(s0)
ffffffc0504025fa:	fe843503          	ld	a0,-24(s0)
ffffffc0504025fe:	3e2000ef          	jal	ra,ffffffc0504029e0 <kmemcpy>
ffffffc050402602:	0001                	nop
ffffffc050402604:	60e2                	ld	ra,24(sp)
ffffffc050402606:	6442                	ld	s0,16(sp)
ffffffc050402608:	6105                	addi	sp,sp,32
ffffffc05040260a:	8082                	ret

ffffffc05040260c <alloc_page_helper>:
ffffffc05040260c:	7175                	addi	sp,sp,-144
ffffffc05040260e:	e506                	sd	ra,136(sp)
ffffffc050402610:	e122                	sd	s0,128(sp)
ffffffc050402612:	fca6                	sd	s1,120(sp)
ffffffc050402614:	0900                	addi	s0,sp,144
ffffffc050402616:	f8a43423          	sd	a0,-120(s0)
ffffffc05040261a:	f8b43023          	sd	a1,-128(s0)
ffffffc05040261e:	87b2                	mv	a5,a2
ffffffc050402620:	f6f42e23          	sw	a5,-132(s0)
ffffffc050402624:	f8843783          	ld	a5,-120(s0)
ffffffc050402628:	83f9                	srli	a5,a5,0x1e
ffffffc05040262a:	1ff7f793          	andi	a5,a5,511
ffffffc05040262e:	fcf43c23          	sd	a5,-40(s0)
ffffffc050402632:	f8843783          	ld	a5,-120(s0)
ffffffc050402636:	83d5                	srli	a5,a5,0x15
ffffffc050402638:	1ff7f793          	andi	a5,a5,511
ffffffc05040263c:	fcf43823          	sd	a5,-48(s0)
ffffffc050402640:	f8843783          	ld	a5,-120(s0)
ffffffc050402644:	83b1                	srli	a5,a5,0xc
ffffffc050402646:	1ff7f793          	andi	a5,a5,511
ffffffc05040264a:	fcf43423          	sd	a5,-56(s0)
ffffffc05040264e:	fd843783          	ld	a5,-40(s0)
ffffffc050402652:	00379713          	slli	a4,a5,0x3
ffffffc050402656:	f8043783          	ld	a5,-128(s0)
ffffffc05040265a:	97ba                	add	a5,a5,a4
ffffffc05040265c:	fcf43023          	sd	a5,-64(s0)
ffffffc050402660:	fc043783          	ld	a5,-64(s0)
ffffffc050402664:	639c                	ld	a5,0(a5)
ffffffc050402666:	8b85                	andi	a5,a5,1
ffffffc050402668:	ef9d                	bnez	a5,ffffffc0504026a6 <alloc_page_helper+0x9a>
ffffffc05040266a:	ee7ff0ef          	jal	ra,ffffffc050402550 <allocPage>
ffffffc05040266e:	faa43c23          	sd	a0,-72(s0)
ffffffc050402672:	fb843503          	ld	a0,-72(s0)
ffffffc050402676:	e17ff0ef          	jal	ra,ffffffc05040248c <kva2pa>
ffffffc05040267a:	87aa                	mv	a5,a0
ffffffc05040267c:	83b1                	srli	a5,a5,0xc
ffffffc05040267e:	85be                	mv	a1,a5
ffffffc050402680:	fc043503          	ld	a0,-64(s0)
ffffffc050402684:	e5bff0ef          	jal	ra,ffffffc0504024de <set_pfn>
ffffffc050402688:	f7c42783          	lw	a5,-132(s0)
ffffffc05040268c:	0007871b          	sext.w	a4,a5
ffffffc050402690:	4785                	li	a5,1
ffffffc050402692:	00f71463          	bne	a4,a5,ffffffc05040269a <alloc_page_helper+0x8e>
ffffffc050402696:	47c1                	li	a5,16
ffffffc050402698:	a011                	j	ffffffc05040269c <alloc_page_helper+0x90>
ffffffc05040269a:	4785                	li	a5,1
ffffffc05040269c:	85be                	mv	a1,a5
ffffffc05040269e:	fc043503          	ld	a0,-64(s0)
ffffffc0504026a2:	e77ff0ef          	jal	ra,ffffffc050402518 <set_attribute>
ffffffc0504026a6:	fd043783          	ld	a5,-48(s0)
ffffffc0504026aa:	00379493          	slli	s1,a5,0x3
ffffffc0504026ae:	fc043783          	ld	a5,-64(s0)
ffffffc0504026b2:	639c                	ld	a5,0(a5)
ffffffc0504026b4:	853e                	mv	a0,a5
ffffffc0504026b6:	e0fff0ef          	jal	ra,ffffffc0504024c4 <get_pa>
ffffffc0504026ba:	87aa                	mv	a5,a0
ffffffc0504026bc:	853e                	mv	a0,a5
ffffffc0504026be:	debff0ef          	jal	ra,ffffffc0504024a8 <pa2kva>
ffffffc0504026c2:	87aa                	mv	a5,a0
ffffffc0504026c4:	97a6                	add	a5,a5,s1
ffffffc0504026c6:	faf43823          	sd	a5,-80(s0)
ffffffc0504026ca:	fb043783          	ld	a5,-80(s0)
ffffffc0504026ce:	639c                	ld	a5,0(a5)
ffffffc0504026d0:	8b85                	andi	a5,a5,1
ffffffc0504026d2:	ef9d                	bnez	a5,ffffffc050402710 <alloc_page_helper+0x104>
ffffffc0504026d4:	e7dff0ef          	jal	ra,ffffffc050402550 <allocPage>
ffffffc0504026d8:	faa43423          	sd	a0,-88(s0)
ffffffc0504026dc:	fa843503          	ld	a0,-88(s0)
ffffffc0504026e0:	dadff0ef          	jal	ra,ffffffc05040248c <kva2pa>
ffffffc0504026e4:	87aa                	mv	a5,a0
ffffffc0504026e6:	83b1                	srli	a5,a5,0xc
ffffffc0504026e8:	85be                	mv	a1,a5
ffffffc0504026ea:	fb043503          	ld	a0,-80(s0)
ffffffc0504026ee:	df1ff0ef          	jal	ra,ffffffc0504024de <set_pfn>
ffffffc0504026f2:	f7c42783          	lw	a5,-132(s0)
ffffffc0504026f6:	0007871b          	sext.w	a4,a5
ffffffc0504026fa:	4785                	li	a5,1
ffffffc0504026fc:	00f71463          	bne	a4,a5,ffffffc050402704 <alloc_page_helper+0xf8>
ffffffc050402700:	47c1                	li	a5,16
ffffffc050402702:	a011                	j	ffffffc050402706 <alloc_page_helper+0xfa>
ffffffc050402704:	4785                	li	a5,1
ffffffc050402706:	85be                	mv	a1,a5
ffffffc050402708:	fb043503          	ld	a0,-80(s0)
ffffffc05040270c:	e0dff0ef          	jal	ra,ffffffc050402518 <set_attribute>
ffffffc050402710:	fc843783          	ld	a5,-56(s0)
ffffffc050402714:	00379493          	slli	s1,a5,0x3
ffffffc050402718:	fb043783          	ld	a5,-80(s0)
ffffffc05040271c:	639c                	ld	a5,0(a5)
ffffffc05040271e:	853e                	mv	a0,a5
ffffffc050402720:	da5ff0ef          	jal	ra,ffffffc0504024c4 <get_pa>
ffffffc050402724:	87aa                	mv	a5,a0
ffffffc050402726:	853e                	mv	a0,a5
ffffffc050402728:	d81ff0ef          	jal	ra,ffffffc0504024a8 <pa2kva>
ffffffc05040272c:	87aa                	mv	a5,a0
ffffffc05040272e:	97a6                	add	a5,a5,s1
ffffffc050402730:	faf43023          	sd	a5,-96(s0)
ffffffc050402734:	fa043783          	ld	a5,-96(s0)
ffffffc050402738:	639c                	ld	a5,0(a5)
ffffffc05040273a:	8b85                	andi	a5,a5,1
ffffffc05040273c:	e3b1                	bnez	a5,ffffffc050402780 <alloc_page_helper+0x174>
ffffffc05040273e:	e13ff0ef          	jal	ra,ffffffc050402550 <allocPage>
ffffffc050402742:	f8a43c23          	sd	a0,-104(s0)
ffffffc050402746:	f9843503          	ld	a0,-104(s0)
ffffffc05040274a:	d43ff0ef          	jal	ra,ffffffc05040248c <kva2pa>
ffffffc05040274e:	87aa                	mv	a5,a0
ffffffc050402750:	83b1                	srli	a5,a5,0xc
ffffffc050402752:	85be                	mv	a1,a5
ffffffc050402754:	fa043503          	ld	a0,-96(s0)
ffffffc050402758:	d87ff0ef          	jal	ra,ffffffc0504024de <set_pfn>
ffffffc05040275c:	f7c42783          	lw	a5,-132(s0)
ffffffc050402760:	0007871b          	sext.w	a4,a5
ffffffc050402764:	4785                	li	a5,1
ffffffc050402766:	00f71463          	bne	a4,a5,ffffffc05040276e <alloc_page_helper+0x162>
ffffffc05040276a:	47c1                	li	a5,16
ffffffc05040276c:	a011                	j	ffffffc050402770 <alloc_page_helper+0x164>
ffffffc05040276e:	47bd                	li	a5,15
ffffffc050402770:	85be                	mv	a1,a5
ffffffc050402772:	fa043503          	ld	a0,-96(s0)
ffffffc050402776:	da3ff0ef          	jal	ra,ffffffc050402518 <set_attribute>
ffffffc05040277a:	f9843783          	ld	a5,-104(s0)
ffffffc05040277e:	a011                	j	ffffffc050402782 <alloc_page_helper+0x176>
ffffffc050402780:	4781                	li	a5,0
ffffffc050402782:	853e                	mv	a0,a5
ffffffc050402784:	60aa                	ld	ra,136(sp)
ffffffc050402786:	640a                	ld	s0,128(sp)
ffffffc050402788:	74e6                	ld	s1,120(sp)
ffffffc05040278a:	6149                	addi	sp,sp,144
ffffffc05040278c:	8082                	ret

ffffffc05040278e <elf_alloc_page_helper>:
ffffffc05040278e:	1101                	addi	sp,sp,-32
ffffffc050402790:	ec06                	sd	ra,24(sp)
ffffffc050402792:	e822                	sd	s0,16(sp)
ffffffc050402794:	1000                	addi	s0,sp,32
ffffffc050402796:	fea43423          	sd	a0,-24(s0)
ffffffc05040279a:	feb43023          	sd	a1,-32(s0)
ffffffc05040279e:	4605                	li	a2,1
ffffffc0504027a0:	fe043583          	ld	a1,-32(s0)
ffffffc0504027a4:	fe843503          	ld	a0,-24(s0)
ffffffc0504027a8:	e65ff0ef          	jal	ra,ffffffc05040260c <alloc_page_helper>
ffffffc0504027ac:	87aa                	mv	a5,a0
ffffffc0504027ae:	853e                	mv	a0,a5
ffffffc0504027b0:	60e2                	ld	ra,24(sp)
ffffffc0504027b2:	6442                	ld	s0,16(sp)
ffffffc0504027b4:	6105                	addi	sp,sp,32
ffffffc0504027b6:	8082                	ret

ffffffc0504027b8 <check_page_helper>:
ffffffc0504027b8:	711d                	addi	sp,sp,-96
ffffffc0504027ba:	ec86                	sd	ra,88(sp)
ffffffc0504027bc:	e8a2                	sd	s0,80(sp)
ffffffc0504027be:	e4a6                	sd	s1,72(sp)
ffffffc0504027c0:	1080                	addi	s0,sp,96
ffffffc0504027c2:	faa43423          	sd	a0,-88(s0)
ffffffc0504027c6:	fab43023          	sd	a1,-96(s0)
ffffffc0504027ca:	fa843783          	ld	a5,-88(s0)
ffffffc0504027ce:	83f9                	srli	a5,a5,0x1e
ffffffc0504027d0:	1ff7f793          	andi	a5,a5,511
ffffffc0504027d4:	fcf43c23          	sd	a5,-40(s0)
ffffffc0504027d8:	fa843783          	ld	a5,-88(s0)
ffffffc0504027dc:	83d5                	srli	a5,a5,0x15
ffffffc0504027de:	1ff7f793          	andi	a5,a5,511
ffffffc0504027e2:	fcf43823          	sd	a5,-48(s0)
ffffffc0504027e6:	fa843783          	ld	a5,-88(s0)
ffffffc0504027ea:	83b1                	srli	a5,a5,0xc
ffffffc0504027ec:	1ff7f793          	andi	a5,a5,511
ffffffc0504027f0:	fcf43423          	sd	a5,-56(s0)
ffffffc0504027f4:	fd843783          	ld	a5,-40(s0)
ffffffc0504027f8:	00379713          	slli	a4,a5,0x3
ffffffc0504027fc:	fa043783          	ld	a5,-96(s0)
ffffffc050402800:	97ba                	add	a5,a5,a4
ffffffc050402802:	fcf43023          	sd	a5,-64(s0)
ffffffc050402806:	fc043783          	ld	a5,-64(s0)
ffffffc05040280a:	639c                	ld	a5,0(a5)
ffffffc05040280c:	8b85                	andi	a5,a5,1
ffffffc05040280e:	e399                	bnez	a5,ffffffc050402814 <check_page_helper+0x5c>
ffffffc050402810:	4781                	li	a5,0
ffffffc050402812:	a8ad                	j	ffffffc05040288c <check_page_helper+0xd4>
ffffffc050402814:	fd043783          	ld	a5,-48(s0)
ffffffc050402818:	00379493          	slli	s1,a5,0x3
ffffffc05040281c:	fc043783          	ld	a5,-64(s0)
ffffffc050402820:	639c                	ld	a5,0(a5)
ffffffc050402822:	853e                	mv	a0,a5
ffffffc050402824:	ca1ff0ef          	jal	ra,ffffffc0504024c4 <get_pa>
ffffffc050402828:	87aa                	mv	a5,a0
ffffffc05040282a:	853e                	mv	a0,a5
ffffffc05040282c:	c7dff0ef          	jal	ra,ffffffc0504024a8 <pa2kva>
ffffffc050402830:	87aa                	mv	a5,a0
ffffffc050402832:	97a6                	add	a5,a5,s1
ffffffc050402834:	faf43c23          	sd	a5,-72(s0)
ffffffc050402838:	fb843783          	ld	a5,-72(s0)
ffffffc05040283c:	639c                	ld	a5,0(a5)
ffffffc05040283e:	8b85                	andi	a5,a5,1
ffffffc050402840:	e399                	bnez	a5,ffffffc050402846 <check_page_helper+0x8e>
ffffffc050402842:	4781                	li	a5,0
ffffffc050402844:	a0a1                	j	ffffffc05040288c <check_page_helper+0xd4>
ffffffc050402846:	fc843783          	ld	a5,-56(s0)
ffffffc05040284a:	00379493          	slli	s1,a5,0x3
ffffffc05040284e:	fb843783          	ld	a5,-72(s0)
ffffffc050402852:	639c                	ld	a5,0(a5)
ffffffc050402854:	853e                	mv	a0,a5
ffffffc050402856:	c6fff0ef          	jal	ra,ffffffc0504024c4 <get_pa>
ffffffc05040285a:	87aa                	mv	a5,a0
ffffffc05040285c:	853e                	mv	a0,a5
ffffffc05040285e:	c4bff0ef          	jal	ra,ffffffc0504024a8 <pa2kva>
ffffffc050402862:	87aa                	mv	a5,a0
ffffffc050402864:	97a6                	add	a5,a5,s1
ffffffc050402866:	faf43823          	sd	a5,-80(s0)
ffffffc05040286a:	fb043783          	ld	a5,-80(s0)
ffffffc05040286e:	639c                	ld	a5,0(a5)
ffffffc050402870:	8b85                	andi	a5,a5,1
ffffffc050402872:	e399                	bnez	a5,ffffffc050402878 <check_page_helper+0xc0>
ffffffc050402874:	4781                	li	a5,0
ffffffc050402876:	a819                	j	ffffffc05040288c <check_page_helper+0xd4>
ffffffc050402878:	fb043783          	ld	a5,-80(s0)
ffffffc05040287c:	853e                	mv	a0,a5
ffffffc05040287e:	c47ff0ef          	jal	ra,ffffffc0504024c4 <get_pa>
ffffffc050402882:	87aa                	mv	a5,a0
ffffffc050402884:	853e                	mv	a0,a5
ffffffc050402886:	c23ff0ef          	jal	ra,ffffffc0504024a8 <pa2kva>
ffffffc05040288a:	87aa                	mv	a5,a0
ffffffc05040288c:	853e                	mv	a0,a5
ffffffc05040288e:	60e6                	ld	ra,88(sp)
ffffffc050402890:	6446                	ld	s0,80(sp)
ffffffc050402892:	64a6                	ld	s1,72(sp)
ffffffc050402894:	6125                	addi	sp,sp,96
ffffffc050402896:	8082                	ret

ffffffc050402898 <freePage>:
ffffffc050402898:	7179                	addi	sp,sp,-48
ffffffc05040289a:	f406                	sd	ra,40(sp)
ffffffc05040289c:	f022                	sd	s0,32(sp)
ffffffc05040289e:	1800                	addi	s0,sp,48
ffffffc0504028a0:	fca43c23          	sd	a0,-40(s0)
ffffffc0504028a4:	a035                	j	ffffffc0504028d0 <freePage+0x38>
ffffffc0504028a6:	fd843503          	ld	a0,-40(s0)
ffffffc0504028aa:	b31ff0ef          	jal	ra,ffffffc0504023da <dequeue>
ffffffc0504028ae:	fea43423          	sd	a0,-24(s0)
ffffffc0504028b2:	fe843783          	ld	a5,-24(s0)
ffffffc0504028b6:	17c1                	addi	a5,a5,-16
ffffffc0504028b8:	fef43023          	sd	a5,-32(s0)
ffffffc0504028bc:	fe043783          	ld	a5,-32(s0)
ffffffc0504028c0:	07c1                	addi	a5,a5,16
ffffffc0504028c2:	85be                	mv	a1,a5
ffffffc0504028c4:	00002517          	auipc	a0,0x2
ffffffc0504028c8:	24450513          	addi	a0,a0,580 # ffffffc050404b08 <freePageList>
ffffffc0504028cc:	acdff0ef          	jal	ra,ffffffc050402398 <enqueue>
ffffffc0504028d0:	fd843503          	ld	a0,-40(s0)
ffffffc0504028d4:	a9fff0ef          	jal	ra,ffffffc050402372 <is_list_empty>
ffffffc0504028d8:	87aa                	mv	a5,a0
ffffffc0504028da:	d7f1                	beqz	a5,ffffffc0504028a6 <freePage+0xe>
ffffffc0504028dc:	0001                	nop
ffffffc0504028de:	0001                	nop
ffffffc0504028e0:	70a2                	ld	ra,40(sp)
ffffffc0504028e2:	7402                	ld	s0,32(sp)
ffffffc0504028e4:	6145                	addi	sp,sp,48
ffffffc0504028e6:	8082                	ret

ffffffc0504028e8 <handle_syscall>:
ffffffc0504028e8:	7179                	addi	sp,sp,-48
ffffffc0504028ea:	f406                	sd	ra,40(sp)
ffffffc0504028ec:	f022                	sd	s0,32(sp)
ffffffc0504028ee:	1800                	addi	s0,sp,48
ffffffc0504028f0:	fea43423          	sd	a0,-24(s0)
ffffffc0504028f4:	feb43023          	sd	a1,-32(s0)
ffffffc0504028f8:	fcc43c23          	sd	a2,-40(s0)
ffffffc0504028fc:	fe843783          	ld	a5,-24(s0)
ffffffc050402900:	1087b783          	ld	a5,264(a5)
ffffffc050402904:	00478713          	addi	a4,a5,4
ffffffc050402908:	fe843783          	ld	a5,-24(s0)
ffffffc05040290c:	10e7b423          	sd	a4,264(a5)
ffffffc050402910:	fe843783          	ld	a5,-24(s0)
ffffffc050402914:	67dc                	ld	a5,136(a5)
ffffffc050402916:	00025717          	auipc	a4,0x25
ffffffc05040291a:	97270713          	addi	a4,a4,-1678 # ffffffc050427288 <syscall>
ffffffc05040291e:	078e                	slli	a5,a5,0x3
ffffffc050402920:	97ba                	add	a5,a5,a4
ffffffc050402922:	0007b803          	ld	a6,0(a5)
ffffffc050402926:	fe843783          	ld	a5,-24(s0)
ffffffc05040292a:	6bb8                	ld	a4,80(a5)
ffffffc05040292c:	fe843783          	ld	a5,-24(s0)
ffffffc050402930:	6fac                	ld	a1,88(a5)
ffffffc050402932:	fe843783          	ld	a5,-24(s0)
ffffffc050402936:	73b0                	ld	a2,96(a5)
ffffffc050402938:	fe843783          	ld	a5,-24(s0)
ffffffc05040293c:	77bc                	ld	a5,104(a5)
ffffffc05040293e:	86be                	mv	a3,a5
ffffffc050402940:	853a                	mv	a0,a4
ffffffc050402942:	9802                	jalr	a6
ffffffc050402944:	87aa                	mv	a5,a0
ffffffc050402946:	873e                	mv	a4,a5
ffffffc050402948:	fe843783          	ld	a5,-24(s0)
ffffffc05040294c:	ebb8                	sd	a4,80(a5)
ffffffc05040294e:	0001                	nop
ffffffc050402950:	70a2                	ld	ra,40(sp)
ffffffc050402952:	7402                	ld	s0,32(sp)
ffffffc050402954:	6145                	addi	sp,sp,48
ffffffc050402956:	8082                	ret

ffffffc050402958 <memcpy>:
ffffffc050402958:	7179                	addi	sp,sp,-48
ffffffc05040295a:	f422                	sd	s0,40(sp)
ffffffc05040295c:	1800                	addi	s0,sp,48
ffffffc05040295e:	fea43423          	sd	a0,-24(s0)
ffffffc050402962:	feb43023          	sd	a1,-32(s0)
ffffffc050402966:	87b2                	mv	a5,a2
ffffffc050402968:	fcf42e23          	sw	a5,-36(s0)
ffffffc05040296c:	a035                	j	ffffffc050402998 <memcpy+0x40>
ffffffc05040296e:	fe043703          	ld	a4,-32(s0)
ffffffc050402972:	00170793          	addi	a5,a4,1
ffffffc050402976:	fef43023          	sd	a5,-32(s0)
ffffffc05040297a:	fe843783          	ld	a5,-24(s0)
ffffffc05040297e:	00178693          	addi	a3,a5,1
ffffffc050402982:	fed43423          	sd	a3,-24(s0)
ffffffc050402986:	00074703          	lbu	a4,0(a4)
ffffffc05040298a:	00e78023          	sb	a4,0(a5)
ffffffc05040298e:	fdc42783          	lw	a5,-36(s0)
ffffffc050402992:	37fd                	addiw	a5,a5,-1
ffffffc050402994:	fcf42e23          	sw	a5,-36(s0)
ffffffc050402998:	fdc42783          	lw	a5,-36(s0)
ffffffc05040299c:	2781                	sext.w	a5,a5
ffffffc05040299e:	fbe1                	bnez	a5,ffffffc05040296e <memcpy+0x16>
ffffffc0504029a0:	0001                	nop
ffffffc0504029a2:	0001                	nop
ffffffc0504029a4:	7422                	ld	s0,40(sp)
ffffffc0504029a6:	6145                	addi	sp,sp,48
ffffffc0504029a8:	8082                	ret

ffffffc0504029aa <kstrlen>:
ffffffc0504029aa:	7179                	addi	sp,sp,-48
ffffffc0504029ac:	f422                	sd	s0,40(sp)
ffffffc0504029ae:	1800                	addi	s0,sp,48
ffffffc0504029b0:	fca43c23          	sd	a0,-40(s0)
ffffffc0504029b4:	fe042623          	sw	zero,-20(s0)
ffffffc0504029b8:	a031                	j	ffffffc0504029c4 <kstrlen+0x1a>
ffffffc0504029ba:	fec42783          	lw	a5,-20(s0)
ffffffc0504029be:	2785                	addiw	a5,a5,1
ffffffc0504029c0:	fef42623          	sw	a5,-20(s0)
ffffffc0504029c4:	fec42783          	lw	a5,-20(s0)
ffffffc0504029c8:	fd843703          	ld	a4,-40(s0)
ffffffc0504029cc:	97ba                	add	a5,a5,a4
ffffffc0504029ce:	0007c783          	lbu	a5,0(a5)
ffffffc0504029d2:	f7e5                	bnez	a5,ffffffc0504029ba <kstrlen+0x10>
ffffffc0504029d4:	fec42783          	lw	a5,-20(s0)
ffffffc0504029d8:	853e                	mv	a0,a5
ffffffc0504029da:	7422                	ld	s0,40(sp)
ffffffc0504029dc:	6145                	addi	sp,sp,48
ffffffc0504029de:	8082                	ret

ffffffc0504029e0 <kmemcpy>:
ffffffc0504029e0:	7179                	addi	sp,sp,-48
ffffffc0504029e2:	f422                	sd	s0,40(sp)
ffffffc0504029e4:	1800                	addi	s0,sp,48
ffffffc0504029e6:	fea43423          	sd	a0,-24(s0)
ffffffc0504029ea:	feb43023          	sd	a1,-32(s0)
ffffffc0504029ee:	87b2                	mv	a5,a2
ffffffc0504029f0:	fcf42e23          	sw	a5,-36(s0)
ffffffc0504029f4:	a035                	j	ffffffc050402a20 <kmemcpy+0x40>
ffffffc0504029f6:	fe043703          	ld	a4,-32(s0)
ffffffc0504029fa:	00170793          	addi	a5,a4,1
ffffffc0504029fe:	fef43023          	sd	a5,-32(s0)
ffffffc050402a02:	fe843783          	ld	a5,-24(s0)
ffffffc050402a06:	00178693          	addi	a3,a5,1
ffffffc050402a0a:	fed43423          	sd	a3,-24(s0)
ffffffc050402a0e:	00074703          	lbu	a4,0(a4)
ffffffc050402a12:	00e78023          	sb	a4,0(a5)
ffffffc050402a16:	fdc42783          	lw	a5,-36(s0)
ffffffc050402a1a:	37fd                	addiw	a5,a5,-1
ffffffc050402a1c:	fcf42e23          	sw	a5,-36(s0)
ffffffc050402a20:	fdc42783          	lw	a5,-36(s0)
ffffffc050402a24:	2781                	sext.w	a5,a5
ffffffc050402a26:	fbe1                	bnez	a5,ffffffc0504029f6 <kmemcpy+0x16>
ffffffc050402a28:	0001                	nop
ffffffc050402a2a:	0001                	nop
ffffffc050402a2c:	7422                	ld	s0,40(sp)
ffffffc050402a2e:	6145                	addi	sp,sp,48
ffffffc050402a30:	8082                	ret

ffffffc050402a32 <kmemset>:
ffffffc050402a32:	7179                	addi	sp,sp,-48
ffffffc050402a34:	f422                	sd	s0,40(sp)
ffffffc050402a36:	1800                	addi	s0,sp,48
ffffffc050402a38:	fca43c23          	sd	a0,-40(s0)
ffffffc050402a3c:	87ae                	mv	a5,a1
ffffffc050402a3e:	8732                	mv	a4,a2
ffffffc050402a40:	fcf40ba3          	sb	a5,-41(s0)
ffffffc050402a44:	87ba                	mv	a5,a4
ffffffc050402a46:	fcf42823          	sw	a5,-48(s0)
ffffffc050402a4a:	fd843783          	ld	a5,-40(s0)
ffffffc050402a4e:	fef43423          	sd	a5,-24(s0)
ffffffc050402a52:	a005                	j	ffffffc050402a72 <kmemset+0x40>
ffffffc050402a54:	fe843783          	ld	a5,-24(s0)
ffffffc050402a58:	00178713          	addi	a4,a5,1
ffffffc050402a5c:	fee43423          	sd	a4,-24(s0)
ffffffc050402a60:	fd744703          	lbu	a4,-41(s0)
ffffffc050402a64:	00e78023          	sb	a4,0(a5)
ffffffc050402a68:	fd042783          	lw	a5,-48(s0)
ffffffc050402a6c:	37fd                	addiw	a5,a5,-1
ffffffc050402a6e:	fcf42823          	sw	a5,-48(s0)
ffffffc050402a72:	fd042783          	lw	a5,-48(s0)
ffffffc050402a76:	2781                	sext.w	a5,a5
ffffffc050402a78:	fff1                	bnez	a5,ffffffc050402a54 <kmemset+0x22>
ffffffc050402a7a:	0001                	nop
ffffffc050402a7c:	0001                	nop
ffffffc050402a7e:	7422                	ld	s0,40(sp)
ffffffc050402a80:	6145                	addi	sp,sp,48
ffffffc050402a82:	8082                	ret

ffffffc050402a84 <kbzero>:
ffffffc050402a84:	1101                	addi	sp,sp,-32
ffffffc050402a86:	ec06                	sd	ra,24(sp)
ffffffc050402a88:	e822                	sd	s0,16(sp)
ffffffc050402a8a:	1000                	addi	s0,sp,32
ffffffc050402a8c:	fea43423          	sd	a0,-24(s0)
ffffffc050402a90:	87ae                	mv	a5,a1
ffffffc050402a92:	fef42223          	sw	a5,-28(s0)
ffffffc050402a96:	fe442783          	lw	a5,-28(s0)
ffffffc050402a9a:	863e                	mv	a2,a5
ffffffc050402a9c:	4581                	li	a1,0
ffffffc050402a9e:	fe843503          	ld	a0,-24(s0)
ffffffc050402aa2:	f91ff0ef          	jal	ra,ffffffc050402a32 <kmemset>
ffffffc050402aa6:	0001                	nop
ffffffc050402aa8:	60e2                	ld	ra,24(sp)
ffffffc050402aaa:	6442                	ld	s0,16(sp)
ffffffc050402aac:	6105                	addi	sp,sp,32
ffffffc050402aae:	8082                	ret

ffffffc050402ab0 <kstrcmp>:
ffffffc050402ab0:	1101                	addi	sp,sp,-32
ffffffc050402ab2:	ec22                	sd	s0,24(sp)
ffffffc050402ab4:	1000                	addi	s0,sp,32
ffffffc050402ab6:	fea43423          	sd	a0,-24(s0)
ffffffc050402aba:	feb43023          	sd	a1,-32(s0)
ffffffc050402abe:	a0a1                	j	ffffffc050402b06 <kstrcmp+0x56>
ffffffc050402ac0:	fe843783          	ld	a5,-24(s0)
ffffffc050402ac4:	0007c703          	lbu	a4,0(a5)
ffffffc050402ac8:	fe043783          	ld	a5,-32(s0)
ffffffc050402acc:	0007c783          	lbu	a5,0(a5)
ffffffc050402ad0:	02f70163          	beq	a4,a5,ffffffc050402af2 <kstrcmp+0x42>
ffffffc050402ad4:	fe843783          	ld	a5,-24(s0)
ffffffc050402ad8:	0007c783          	lbu	a5,0(a5)
ffffffc050402adc:	0007871b          	sext.w	a4,a5
ffffffc050402ae0:	fe043783          	ld	a5,-32(s0)
ffffffc050402ae4:	0007c783          	lbu	a5,0(a5)
ffffffc050402ae8:	2781                	sext.w	a5,a5
ffffffc050402aea:	40f707bb          	subw	a5,a4,a5
ffffffc050402aee:	2781                	sext.w	a5,a5
ffffffc050402af0:	a099                	j	ffffffc050402b36 <kstrcmp+0x86>
ffffffc050402af2:	fe843783          	ld	a5,-24(s0)
ffffffc050402af6:	0785                	addi	a5,a5,1
ffffffc050402af8:	fef43423          	sd	a5,-24(s0)
ffffffc050402afc:	fe043783          	ld	a5,-32(s0)
ffffffc050402b00:	0785                	addi	a5,a5,1
ffffffc050402b02:	fef43023          	sd	a5,-32(s0)
ffffffc050402b06:	fe843783          	ld	a5,-24(s0)
ffffffc050402b0a:	0007c783          	lbu	a5,0(a5)
ffffffc050402b0e:	c791                	beqz	a5,ffffffc050402b1a <kstrcmp+0x6a>
ffffffc050402b10:	fe043783          	ld	a5,-32(s0)
ffffffc050402b14:	0007c783          	lbu	a5,0(a5)
ffffffc050402b18:	f7c5                	bnez	a5,ffffffc050402ac0 <kstrcmp+0x10>
ffffffc050402b1a:	fe843783          	ld	a5,-24(s0)
ffffffc050402b1e:	0007c783          	lbu	a5,0(a5)
ffffffc050402b22:	0007871b          	sext.w	a4,a5
ffffffc050402b26:	fe043783          	ld	a5,-32(s0)
ffffffc050402b2a:	0007c783          	lbu	a5,0(a5)
ffffffc050402b2e:	2781                	sext.w	a5,a5
ffffffc050402b30:	40f707bb          	subw	a5,a4,a5
ffffffc050402b34:	2781                	sext.w	a5,a5
ffffffc050402b36:	853e                	mv	a0,a5
ffffffc050402b38:	6462                	ld	s0,24(sp)
ffffffc050402b3a:	6105                	addi	sp,sp,32
ffffffc050402b3c:	8082                	ret

ffffffc050402b3e <kstrcpy>:
ffffffc050402b3e:	7179                	addi	sp,sp,-48
ffffffc050402b40:	f422                	sd	s0,40(sp)
ffffffc050402b42:	1800                	addi	s0,sp,48
ffffffc050402b44:	fca43c23          	sd	a0,-40(s0)
ffffffc050402b48:	fcb43823          	sd	a1,-48(s0)
ffffffc050402b4c:	fd843783          	ld	a5,-40(s0)
ffffffc050402b50:	fef43423          	sd	a5,-24(s0)
ffffffc050402b54:	a00d                	j	ffffffc050402b76 <kstrcpy+0x38>
ffffffc050402b56:	fd043703          	ld	a4,-48(s0)
ffffffc050402b5a:	00170793          	addi	a5,a4,1
ffffffc050402b5e:	fcf43823          	sd	a5,-48(s0)
ffffffc050402b62:	fd843783          	ld	a5,-40(s0)
ffffffc050402b66:	00178693          	addi	a3,a5,1
ffffffc050402b6a:	fcd43c23          	sd	a3,-40(s0)
ffffffc050402b6e:	00074703          	lbu	a4,0(a4)
ffffffc050402b72:	00e78023          	sb	a4,0(a5)
ffffffc050402b76:	fd043783          	ld	a5,-48(s0)
ffffffc050402b7a:	0007c783          	lbu	a5,0(a5)
ffffffc050402b7e:	ffe1                	bnez	a5,ffffffc050402b56 <kstrcpy+0x18>
ffffffc050402b80:	fd843783          	ld	a5,-40(s0)
ffffffc050402b84:	00078023          	sb	zero,0(a5)
ffffffc050402b88:	fe843783          	ld	a5,-24(s0)
ffffffc050402b8c:	853e                	mv	a0,a5
ffffffc050402b8e:	7422                	ld	s0,40(sp)
ffffffc050402b90:	6145                	addi	sp,sp,48
ffffffc050402b92:	8082                	ret

ffffffc050402b94 <kstrcat>:
ffffffc050402b94:	7179                	addi	sp,sp,-48
ffffffc050402b96:	f422                	sd	s0,40(sp)
ffffffc050402b98:	1800                	addi	s0,sp,48
ffffffc050402b9a:	fca43c23          	sd	a0,-40(s0)
ffffffc050402b9e:	fcb43823          	sd	a1,-48(s0)
ffffffc050402ba2:	fd843783          	ld	a5,-40(s0)
ffffffc050402ba6:	fef43423          	sd	a5,-24(s0)
ffffffc050402baa:	a031                	j	ffffffc050402bb6 <kstrcat+0x22>
ffffffc050402bac:	fd843783          	ld	a5,-40(s0)
ffffffc050402bb0:	0785                	addi	a5,a5,1
ffffffc050402bb2:	fcf43c23          	sd	a5,-40(s0)
ffffffc050402bb6:	fd843783          	ld	a5,-40(s0)
ffffffc050402bba:	0007c783          	lbu	a5,0(a5)
ffffffc050402bbe:	f7fd                	bnez	a5,ffffffc050402bac <kstrcat+0x18>
ffffffc050402bc0:	a00d                	j	ffffffc050402be2 <kstrcat+0x4e>
ffffffc050402bc2:	fd043703          	ld	a4,-48(s0)
ffffffc050402bc6:	00170793          	addi	a5,a4,1
ffffffc050402bca:	fcf43823          	sd	a5,-48(s0)
ffffffc050402bce:	fd843783          	ld	a5,-40(s0)
ffffffc050402bd2:	00178693          	addi	a3,a5,1
ffffffc050402bd6:	fcd43c23          	sd	a3,-40(s0)
ffffffc050402bda:	00074703          	lbu	a4,0(a4)
ffffffc050402bde:	00e78023          	sb	a4,0(a5)
ffffffc050402be2:	fd043783          	ld	a5,-48(s0)
ffffffc050402be6:	0007c783          	lbu	a5,0(a5)
ffffffc050402bea:	ffe1                	bnez	a5,ffffffc050402bc2 <kstrcat+0x2e>
ffffffc050402bec:	fd843783          	ld	a5,-40(s0)
ffffffc050402bf0:	00078023          	sb	zero,0(a5)
ffffffc050402bf4:	fe843783          	ld	a5,-24(s0)
ffffffc050402bf8:	853e                	mv	a0,a5
ffffffc050402bfa:	7422                	ld	s0,40(sp)
ffffffc050402bfc:	6145                	addi	sp,sp,48
ffffffc050402bfe:	8082                	ret

ffffffc050402c00 <strcmp>:
ffffffc050402c00:	1101                	addi	sp,sp,-32
ffffffc050402c02:	ec22                	sd	s0,24(sp)
ffffffc050402c04:	1000                	addi	s0,sp,32
ffffffc050402c06:	fea43423          	sd	a0,-24(s0)
ffffffc050402c0a:	feb43023          	sd	a1,-32(s0)
ffffffc050402c0e:	a0a1                	j	ffffffc050402c56 <strcmp+0x56>
ffffffc050402c10:	fe843783          	ld	a5,-24(s0)
ffffffc050402c14:	0007c703          	lbu	a4,0(a5)
ffffffc050402c18:	fe043783          	ld	a5,-32(s0)
ffffffc050402c1c:	0007c783          	lbu	a5,0(a5)
ffffffc050402c20:	02f70163          	beq	a4,a5,ffffffc050402c42 <strcmp+0x42>
ffffffc050402c24:	fe843783          	ld	a5,-24(s0)
ffffffc050402c28:	0007c783          	lbu	a5,0(a5)
ffffffc050402c2c:	0007871b          	sext.w	a4,a5
ffffffc050402c30:	fe043783          	ld	a5,-32(s0)
ffffffc050402c34:	0007c783          	lbu	a5,0(a5)
ffffffc050402c38:	2781                	sext.w	a5,a5
ffffffc050402c3a:	40f707bb          	subw	a5,a4,a5
ffffffc050402c3e:	2781                	sext.w	a5,a5
ffffffc050402c40:	a099                	j	ffffffc050402c86 <strcmp+0x86>
ffffffc050402c42:	fe843783          	ld	a5,-24(s0)
ffffffc050402c46:	0785                	addi	a5,a5,1
ffffffc050402c48:	fef43423          	sd	a5,-24(s0)
ffffffc050402c4c:	fe043783          	ld	a5,-32(s0)
ffffffc050402c50:	0785                	addi	a5,a5,1
ffffffc050402c52:	fef43023          	sd	a5,-32(s0)
ffffffc050402c56:	fe843783          	ld	a5,-24(s0)
ffffffc050402c5a:	0007c783          	lbu	a5,0(a5)
ffffffc050402c5e:	c791                	beqz	a5,ffffffc050402c6a <strcmp+0x6a>
ffffffc050402c60:	fe043783          	ld	a5,-32(s0)
ffffffc050402c64:	0007c783          	lbu	a5,0(a5)
ffffffc050402c68:	f7c5                	bnez	a5,ffffffc050402c10 <strcmp+0x10>
ffffffc050402c6a:	fe843783          	ld	a5,-24(s0)
ffffffc050402c6e:	0007c783          	lbu	a5,0(a5)
ffffffc050402c72:	0007871b          	sext.w	a4,a5
ffffffc050402c76:	fe043783          	ld	a5,-32(s0)
ffffffc050402c7a:	0007c783          	lbu	a5,0(a5)
ffffffc050402c7e:	2781                	sext.w	a5,a5
ffffffc050402c80:	40f707bb          	subw	a5,a4,a5
ffffffc050402c84:	2781                	sext.w	a5,a5
ffffffc050402c86:	853e                	mv	a0,a5
ffffffc050402c88:	6462                	ld	s0,24(sp)
ffffffc050402c8a:	6105                	addi	sp,sp,32
ffffffc050402c8c:	8082                	ret

ffffffc050402c8e <mini_strlen>:
ffffffc050402c8e:	7179                	addi	sp,sp,-48
ffffffc050402c90:	f422                	sd	s0,40(sp)
ffffffc050402c92:	1800                	addi	s0,sp,48
ffffffc050402c94:	fca43c23          	sd	a0,-40(s0)
ffffffc050402c98:	fe042623          	sw	zero,-20(s0)
ffffffc050402c9c:	a031                	j	ffffffc050402ca8 <mini_strlen+0x1a>
ffffffc050402c9e:	fec42783          	lw	a5,-20(s0)
ffffffc050402ca2:	2785                	addiw	a5,a5,1
ffffffc050402ca4:	fef42623          	sw	a5,-20(s0)
ffffffc050402ca8:	fec46783          	lwu	a5,-20(s0)
ffffffc050402cac:	fd843703          	ld	a4,-40(s0)
ffffffc050402cb0:	97ba                	add	a5,a5,a4
ffffffc050402cb2:	0007c783          	lbu	a5,0(a5)
ffffffc050402cb6:	f7e5                	bnez	a5,ffffffc050402c9e <mini_strlen+0x10>
ffffffc050402cb8:	fec42783          	lw	a5,-20(s0)
ffffffc050402cbc:	853e                	mv	a0,a5
ffffffc050402cbe:	7422                	ld	s0,40(sp)
ffffffc050402cc0:	6145                	addi	sp,sp,48
ffffffc050402cc2:	8082                	ret

ffffffc050402cc4 <mini_itoa>:
ffffffc050402cc4:	715d                	addi	sp,sp,-80
ffffffc050402cc6:	e4a2                	sd	s0,72(sp)
ffffffc050402cc8:	0880                	addi	s0,sp,80
ffffffc050402cca:	fca43423          	sd	a0,-56(s0)
ffffffc050402cce:	fae43823          	sd	a4,-80(s0)
ffffffc050402cd2:	873e                	mv	a4,a5
ffffffc050402cd4:	87ae                	mv	a5,a1
ffffffc050402cd6:	fcf42223          	sw	a5,-60(s0)
ffffffc050402cda:	87b2                	mv	a5,a2
ffffffc050402cdc:	fcf42023          	sw	a5,-64(s0)
ffffffc050402ce0:	87b6                	mv	a5,a3
ffffffc050402ce2:	faf42e23          	sw	a5,-68(s0)
ffffffc050402ce6:	87ba                	mv	a5,a4
ffffffc050402ce8:	faf42c23          	sw	a5,-72(s0)
ffffffc050402cec:	fb043783          	ld	a5,-80(s0)
ffffffc050402cf0:	fef43423          	sd	a5,-24(s0)
ffffffc050402cf4:	fe042223          	sw	zero,-28(s0)
ffffffc050402cf8:	fc442783          	lw	a5,-60(s0)
ffffffc050402cfc:	0007871b          	sext.w	a4,a5
ffffffc050402d00:	47c1                	li	a5,16
ffffffc050402d02:	00e7f463          	bgeu	a5,a4,ffffffc050402d0a <mini_itoa+0x46>
ffffffc050402d06:	4781                	li	a5,0
ffffffc050402d08:	aae9                	j	ffffffc050402ee2 <mini_itoa+0x21e>
ffffffc050402d0a:	fc843783          	ld	a5,-56(s0)
ffffffc050402d0e:	0007df63          	bgez	a5,ffffffc050402d2c <mini_itoa+0x68>
ffffffc050402d12:	fbc42783          	lw	a5,-68(s0)
ffffffc050402d16:	2781                	sext.w	a5,a5
ffffffc050402d18:	eb91                	bnez	a5,ffffffc050402d2c <mini_itoa+0x68>
ffffffc050402d1a:	4785                	li	a5,1
ffffffc050402d1c:	fef42223          	sw	a5,-28(s0)
ffffffc050402d20:	fc843783          	ld	a5,-56(s0)
ffffffc050402d24:	40f007b3          	neg	a5,a5
ffffffc050402d28:	fcf43423          	sd	a5,-56(s0)
ffffffc050402d2c:	fc042e23          	sw	zero,-36(s0)
ffffffc050402d30:	fbc42783          	lw	a5,-68(s0)
ffffffc050402d34:	2781                	sext.w	a5,a5
ffffffc050402d36:	cb91                	beqz	a5,ffffffc050402d4a <mini_itoa+0x86>
ffffffc050402d38:	fc843703          	ld	a4,-56(s0)
ffffffc050402d3c:	fc446783          	lwu	a5,-60(s0)
ffffffc050402d40:	02f777b3          	remu	a5,a4,a5
ffffffc050402d44:	fcf42e23          	sw	a5,-36(s0)
ffffffc050402d48:	a809                	j	ffffffc050402d5a <mini_itoa+0x96>
ffffffc050402d4a:	fc446783          	lwu	a5,-60(s0)
ffffffc050402d4e:	fc843703          	ld	a4,-56(s0)
ffffffc050402d52:	02f767b3          	rem	a5,a4,a5
ffffffc050402d56:	fcf42e23          	sw	a5,-36(s0)
ffffffc050402d5a:	fdc42783          	lw	a5,-36(s0)
ffffffc050402d5e:	0007871b          	sext.w	a4,a5
ffffffc050402d62:	47a5                	li	a5,9
ffffffc050402d64:	00e7cb63          	blt	a5,a4,ffffffc050402d7a <mini_itoa+0xb6>
ffffffc050402d68:	fdc42783          	lw	a5,-36(s0)
ffffffc050402d6c:	0ff7f793          	andi	a5,a5,255
ffffffc050402d70:	0307879b          	addiw	a5,a5,48
ffffffc050402d74:	0ff7f713          	andi	a4,a5,255
ffffffc050402d78:	a025                	j	ffffffc050402da0 <mini_itoa+0xdc>
ffffffc050402d7a:	fc042783          	lw	a5,-64(s0)
ffffffc050402d7e:	2781                	sext.w	a5,a5
ffffffc050402d80:	c781                	beqz	a5,ffffffc050402d88 <mini_itoa+0xc4>
ffffffc050402d82:	04100793          	li	a5,65
ffffffc050402d86:	a019                	j	ffffffc050402d8c <mini_itoa+0xc8>
ffffffc050402d88:	06100793          	li	a5,97
ffffffc050402d8c:	fdc42703          	lw	a4,-36(s0)
ffffffc050402d90:	0ff77713          	andi	a4,a4,255
ffffffc050402d94:	9fb9                	addw	a5,a5,a4
ffffffc050402d96:	0ff7f793          	andi	a5,a5,255
ffffffc050402d9a:	37d9                	addiw	a5,a5,-10
ffffffc050402d9c:	0ff7f713          	andi	a4,a5,255
ffffffc050402da0:	fe843783          	ld	a5,-24(s0)
ffffffc050402da4:	00178693          	addi	a3,a5,1
ffffffc050402da8:	fed43423          	sd	a3,-24(s0)
ffffffc050402dac:	00e78023          	sb	a4,0(a5)
ffffffc050402db0:	fbc42783          	lw	a5,-68(s0)
ffffffc050402db4:	2781                	sext.w	a5,a5
ffffffc050402db6:	cb91                	beqz	a5,ffffffc050402dca <mini_itoa+0x106>
ffffffc050402db8:	fc843703          	ld	a4,-56(s0)
ffffffc050402dbc:	fc446783          	lwu	a5,-60(s0)
ffffffc050402dc0:	02f757b3          	divu	a5,a4,a5
ffffffc050402dc4:	fcf43423          	sd	a5,-56(s0)
ffffffc050402dc8:	a809                	j	ffffffc050402dda <mini_itoa+0x116>
ffffffc050402dca:	fc446783          	lwu	a5,-60(s0)
ffffffc050402dce:	fc843703          	ld	a4,-56(s0)
ffffffc050402dd2:	02f747b3          	div	a5,a4,a5
ffffffc050402dd6:	fcf43423          	sd	a5,-56(s0)
ffffffc050402dda:	fc843783          	ld	a5,-56(s0)
ffffffc050402dde:	f7b9                	bnez	a5,ffffffc050402d2c <mini_itoa+0x68>
ffffffc050402de0:	fe843703          	ld	a4,-24(s0)
ffffffc050402de4:	fb043783          	ld	a5,-80(s0)
ffffffc050402de8:	40f707b3          	sub	a5,a4,a5
ffffffc050402dec:	fef42023          	sw	a5,-32(s0)
ffffffc050402df0:	a005                	j	ffffffc050402e10 <mini_itoa+0x14c>
ffffffc050402df2:	fe843783          	ld	a5,-24(s0)
ffffffc050402df6:	00178713          	addi	a4,a5,1
ffffffc050402dfa:	fee43423          	sd	a4,-24(s0)
ffffffc050402dfe:	03000713          	li	a4,48
ffffffc050402e02:	00e78023          	sb	a4,0(a5)
ffffffc050402e06:	fe042783          	lw	a5,-32(s0)
ffffffc050402e0a:	2785                	addiw	a5,a5,1
ffffffc050402e0c:	fef42023          	sw	a5,-32(s0)
ffffffc050402e10:	fe042703          	lw	a4,-32(s0)
ffffffc050402e14:	fb842783          	lw	a5,-72(s0)
ffffffc050402e18:	2701                	sext.w	a4,a4
ffffffc050402e1a:	2781                	sext.w	a5,a5
ffffffc050402e1c:	fcf76be3          	bltu	a4,a5,ffffffc050402df2 <mini_itoa+0x12e>
ffffffc050402e20:	fe442783          	lw	a5,-28(s0)
ffffffc050402e24:	2781                	sext.w	a5,a5
ffffffc050402e26:	cb99                	beqz	a5,ffffffc050402e3c <mini_itoa+0x178>
ffffffc050402e28:	fe843783          	ld	a5,-24(s0)
ffffffc050402e2c:	00178713          	addi	a4,a5,1
ffffffc050402e30:	fee43423          	sd	a4,-24(s0)
ffffffc050402e34:	02d00713          	li	a4,45
ffffffc050402e38:	00e78023          	sb	a4,0(a5)
ffffffc050402e3c:	fe843783          	ld	a5,-24(s0)
ffffffc050402e40:	00078023          	sb	zero,0(a5)
ffffffc050402e44:	fe843703          	ld	a4,-24(s0)
ffffffc050402e48:	fb043783          	ld	a5,-80(s0)
ffffffc050402e4c:	40f707b3          	sub	a5,a4,a5
ffffffc050402e50:	fcf42c23          	sw	a5,-40(s0)
ffffffc050402e54:	fe042023          	sw	zero,-32(s0)
ffffffc050402e58:	a885                	j	ffffffc050402ec8 <mini_itoa+0x204>
ffffffc050402e5a:	fe046783          	lwu	a5,-32(s0)
ffffffc050402e5e:	fb043703          	ld	a4,-80(s0)
ffffffc050402e62:	97ba                	add	a5,a5,a4
ffffffc050402e64:	0007c783          	lbu	a5,0(a5)
ffffffc050402e68:	fcf40ba3          	sb	a5,-41(s0)
ffffffc050402e6c:	fd842703          	lw	a4,-40(s0)
ffffffc050402e70:	fe042783          	lw	a5,-32(s0)
ffffffc050402e74:	40f707bb          	subw	a5,a4,a5
ffffffc050402e78:	2781                	sext.w	a5,a5
ffffffc050402e7a:	37fd                	addiw	a5,a5,-1
ffffffc050402e7c:	2781                	sext.w	a5,a5
ffffffc050402e7e:	1782                	slli	a5,a5,0x20
ffffffc050402e80:	9381                	srli	a5,a5,0x20
ffffffc050402e82:	fb043703          	ld	a4,-80(s0)
ffffffc050402e86:	973e                	add	a4,a4,a5
ffffffc050402e88:	fe046783          	lwu	a5,-32(s0)
ffffffc050402e8c:	fb043683          	ld	a3,-80(s0)
ffffffc050402e90:	97b6                	add	a5,a5,a3
ffffffc050402e92:	00074703          	lbu	a4,0(a4)
ffffffc050402e96:	00e78023          	sb	a4,0(a5)
ffffffc050402e9a:	fd842703          	lw	a4,-40(s0)
ffffffc050402e9e:	fe042783          	lw	a5,-32(s0)
ffffffc050402ea2:	40f707bb          	subw	a5,a4,a5
ffffffc050402ea6:	2781                	sext.w	a5,a5
ffffffc050402ea8:	37fd                	addiw	a5,a5,-1
ffffffc050402eaa:	2781                	sext.w	a5,a5
ffffffc050402eac:	1782                	slli	a5,a5,0x20
ffffffc050402eae:	9381                	srli	a5,a5,0x20
ffffffc050402eb0:	fb043703          	ld	a4,-80(s0)
ffffffc050402eb4:	97ba                	add	a5,a5,a4
ffffffc050402eb6:	fd744703          	lbu	a4,-41(s0)
ffffffc050402eba:	00e78023          	sb	a4,0(a5)
ffffffc050402ebe:	fe042783          	lw	a5,-32(s0)
ffffffc050402ec2:	2785                	addiw	a5,a5,1
ffffffc050402ec4:	fef42023          	sw	a5,-32(s0)
ffffffc050402ec8:	fd842783          	lw	a5,-40(s0)
ffffffc050402ecc:	0017d79b          	srliw	a5,a5,0x1
ffffffc050402ed0:	0007871b          	sext.w	a4,a5
ffffffc050402ed4:	fe042783          	lw	a5,-32(s0)
ffffffc050402ed8:	2781                	sext.w	a5,a5
ffffffc050402eda:	f8e7e0e3          	bltu	a5,a4,ffffffc050402e5a <mini_itoa+0x196>
ffffffc050402ede:	fd842783          	lw	a5,-40(s0)
ffffffc050402ee2:	853e                	mv	a0,a5
ffffffc050402ee4:	6426                	ld	s0,72(sp)
ffffffc050402ee6:	6161                	addi	sp,sp,80
ffffffc050402ee8:	8082                	ret

ffffffc050402eea <_putc>:
ffffffc050402eea:	1101                	addi	sp,sp,-32
ffffffc050402eec:	ec22                	sd	s0,24(sp)
ffffffc050402eee:	1000                	addi	s0,sp,32
ffffffc050402ef0:	87aa                	mv	a5,a0
ffffffc050402ef2:	feb43023          	sd	a1,-32(s0)
ffffffc050402ef6:	fef42623          	sw	a5,-20(s0)
ffffffc050402efa:	fe043783          	ld	a5,-32(s0)
ffffffc050402efe:	6798                	ld	a4,8(a5)
ffffffc050402f00:	fe043783          	ld	a5,-32(s0)
ffffffc050402f04:	639c                	ld	a5,0(a5)
ffffffc050402f06:	40f707b3          	sub	a5,a4,a5
ffffffc050402f0a:	2781                	sext.w	a5,a5
ffffffc050402f0c:	2785                	addiw	a5,a5,1
ffffffc050402f0e:	0007871b          	sext.w	a4,a5
ffffffc050402f12:	fe043783          	ld	a5,-32(s0)
ffffffc050402f16:	4b9c                	lw	a5,16(a5)
ffffffc050402f18:	00f76463          	bltu	a4,a5,ffffffc050402f20 <_putc+0x36>
ffffffc050402f1c:	4781                	li	a5,0
ffffffc050402f1e:	a02d                	j	ffffffc050402f48 <_putc+0x5e>
ffffffc050402f20:	fe043783          	ld	a5,-32(s0)
ffffffc050402f24:	679c                	ld	a5,8(a5)
ffffffc050402f26:	00178693          	addi	a3,a5,1
ffffffc050402f2a:	fe043703          	ld	a4,-32(s0)
ffffffc050402f2e:	e714                	sd	a3,8(a4)
ffffffc050402f30:	fec42703          	lw	a4,-20(s0)
ffffffc050402f34:	0ff77713          	andi	a4,a4,255
ffffffc050402f38:	00e78023          	sb	a4,0(a5)
ffffffc050402f3c:	fe043783          	ld	a5,-32(s0)
ffffffc050402f40:	679c                	ld	a5,8(a5)
ffffffc050402f42:	00078023          	sb	zero,0(a5)
ffffffc050402f46:	4785                	li	a5,1
ffffffc050402f48:	853e                	mv	a0,a5
ffffffc050402f4a:	6462                	ld	s0,24(sp)
ffffffc050402f4c:	6105                	addi	sp,sp,32
ffffffc050402f4e:	8082                	ret

ffffffc050402f50 <_puts>:
ffffffc050402f50:	7139                	addi	sp,sp,-64
ffffffc050402f52:	fc22                	sd	s0,56(sp)
ffffffc050402f54:	0080                	addi	s0,sp,64
ffffffc050402f56:	fca43c23          	sd	a0,-40(s0)
ffffffc050402f5a:	87ae                	mv	a5,a1
ffffffc050402f5c:	fcc43423          	sd	a2,-56(s0)
ffffffc050402f60:	fcf42a23          	sw	a5,-44(s0)
ffffffc050402f64:	fc843783          	ld	a5,-56(s0)
ffffffc050402f68:	4b9c                	lw	a5,16(a5)
ffffffc050402f6a:	02079713          	slli	a4,a5,0x20
ffffffc050402f6e:	9301                	srli	a4,a4,0x20
ffffffc050402f70:	fc843783          	ld	a5,-56(s0)
ffffffc050402f74:	6794                	ld	a3,8(a5)
ffffffc050402f76:	fc843783          	ld	a5,-56(s0)
ffffffc050402f7a:	639c                	ld	a5,0(a5)
ffffffc050402f7c:	40f687b3          	sub	a5,a3,a5
ffffffc050402f80:	8f1d                	sub	a4,a4,a5
ffffffc050402f82:	fd446783          	lwu	a5,-44(s0)
ffffffc050402f86:	02e7c463          	blt	a5,a4,ffffffc050402fae <_puts+0x5e>
ffffffc050402f8a:	fc843783          	ld	a5,-56(s0)
ffffffc050402f8e:	4b98                	lw	a4,16(a5)
ffffffc050402f90:	fc843783          	ld	a5,-56(s0)
ffffffc050402f94:	6794                	ld	a3,8(a5)
ffffffc050402f96:	fc843783          	ld	a5,-56(s0)
ffffffc050402f9a:	639c                	ld	a5,0(a5)
ffffffc050402f9c:	40f687b3          	sub	a5,a3,a5
ffffffc050402fa0:	2781                	sext.w	a5,a5
ffffffc050402fa2:	40f707bb          	subw	a5,a4,a5
ffffffc050402fa6:	2781                	sext.w	a5,a5
ffffffc050402fa8:	37fd                	addiw	a5,a5,-1
ffffffc050402faa:	fcf42a23          	sw	a5,-44(s0)
ffffffc050402fae:	fe042623          	sw	zero,-20(s0)
ffffffc050402fb2:	a03d                	j	ffffffc050402fe0 <_puts+0x90>
ffffffc050402fb4:	fec46783          	lwu	a5,-20(s0)
ffffffc050402fb8:	fd843703          	ld	a4,-40(s0)
ffffffc050402fbc:	973e                	add	a4,a4,a5
ffffffc050402fbe:	fc843783          	ld	a5,-56(s0)
ffffffc050402fc2:	679c                	ld	a5,8(a5)
ffffffc050402fc4:	00178613          	addi	a2,a5,1
ffffffc050402fc8:	fc843683          	ld	a3,-56(s0)
ffffffc050402fcc:	e690                	sd	a2,8(a3)
ffffffc050402fce:	00074703          	lbu	a4,0(a4)
ffffffc050402fd2:	00e78023          	sb	a4,0(a5)
ffffffc050402fd6:	fec42783          	lw	a5,-20(s0)
ffffffc050402fda:	2785                	addiw	a5,a5,1
ffffffc050402fdc:	fef42623          	sw	a5,-20(s0)
ffffffc050402fe0:	fec42703          	lw	a4,-20(s0)
ffffffc050402fe4:	fd442783          	lw	a5,-44(s0)
ffffffc050402fe8:	2701                	sext.w	a4,a4
ffffffc050402fea:	2781                	sext.w	a5,a5
ffffffc050402fec:	fcf764e3          	bltu	a4,a5,ffffffc050402fb4 <_puts+0x64>
ffffffc050402ff0:	fc843783          	ld	a5,-56(s0)
ffffffc050402ff4:	679c                	ld	a5,8(a5)
ffffffc050402ff6:	00078023          	sb	zero,0(a5)
ffffffc050402ffa:	fd442783          	lw	a5,-44(s0)
ffffffc050402ffe:	853e                	mv	a0,a5
ffffffc050403000:	7462                	ld	s0,56(sp)
ffffffc050403002:	6121                	addi	sp,sp,64
ffffffc050403004:	8082                	ret

ffffffc050403006 <mini_vsnprintf>:
ffffffc050403006:	7119                	addi	sp,sp,-128
ffffffc050403008:	fc86                	sd	ra,120(sp)
ffffffc05040300a:	f8a2                	sd	s0,112(sp)
ffffffc05040300c:	0100                	addi	s0,sp,128
ffffffc05040300e:	f8a43c23          	sd	a0,-104(s0)
ffffffc050403012:	87ae                	mv	a5,a1
ffffffc050403014:	f8c43423          	sd	a2,-120(s0)
ffffffc050403018:	f8d43023          	sd	a3,-128(s0)
ffffffc05040301c:	f8f42a23          	sw	a5,-108(s0)
ffffffc050403020:	f9843783          	ld	a5,-104(s0)
ffffffc050403024:	fcf43023          	sd	a5,-64(s0)
ffffffc050403028:	f9843783          	ld	a5,-104(s0)
ffffffc05040302c:	fcf43423          	sd	a5,-56(s0)
ffffffc050403030:	f9442783          	lw	a5,-108(s0)
ffffffc050403034:	fcf42823          	sw	a5,-48(s0)
ffffffc050403038:	a4f9                	j	ffffffc050403306 <mini_vsnprintf+0x300>
ffffffc05040303a:	fc843703          	ld	a4,-56(s0)
ffffffc05040303e:	fc043783          	ld	a5,-64(s0)
ffffffc050403042:	40f707b3          	sub	a5,a4,a5
ffffffc050403046:	2781                	sext.w	a5,a5
ffffffc050403048:	2785                	addiw	a5,a5,1
ffffffc05040304a:	0007871b          	sext.w	a4,a5
ffffffc05040304e:	fd042783          	lw	a5,-48(s0)
ffffffc050403052:	2cf77b63          	bgeu	a4,a5,ffffffc050403328 <mini_vsnprintf+0x322>
ffffffc050403056:	fef44783          	lbu	a5,-17(s0)
ffffffc05040305a:	0ff7f713          	andi	a4,a5,255
ffffffc05040305e:	02500793          	li	a5,37
ffffffc050403062:	00f70c63          	beq	a4,a5,ffffffc05040307a <mini_vsnprintf+0x74>
ffffffc050403066:	fef44783          	lbu	a5,-17(s0)
ffffffc05040306a:	2781                	sext.w	a5,a5
ffffffc05040306c:	fc040713          	addi	a4,s0,-64
ffffffc050403070:	85ba                	mv	a1,a4
ffffffc050403072:	853e                	mv	a0,a5
ffffffc050403074:	e77ff0ef          	jal	ra,ffffffc050402eea <_putc>
ffffffc050403078:	a479                	j	ffffffc050403306 <mini_vsnprintf+0x300>
ffffffc05040307a:	fe040723          	sb	zero,-18(s0)
ffffffc05040307e:	fe042423          	sw	zero,-24(s0)
ffffffc050403082:	f8843783          	ld	a5,-120(s0)
ffffffc050403086:	00178713          	addi	a4,a5,1
ffffffc05040308a:	f8e43423          	sd	a4,-120(s0)
ffffffc05040308e:	0007c783          	lbu	a5,0(a5)
ffffffc050403092:	fef407a3          	sb	a5,-17(s0)
ffffffc050403096:	fef44783          	lbu	a5,-17(s0)
ffffffc05040309a:	0ff7f713          	andi	a4,a5,255
ffffffc05040309e:	03000793          	li	a5,48
ffffffc0504030a2:	06f71b63          	bne	a4,a5,ffffffc050403118 <mini_vsnprintf+0x112>
ffffffc0504030a6:	a891                	j	ffffffc0504030fa <mini_vsnprintf+0xf4>
ffffffc0504030a8:	fef44783          	lbu	a5,-17(s0)
ffffffc0504030ac:	0ff7f793          	andi	a5,a5,255
ffffffc0504030b0:	26078e63          	beqz	a5,ffffffc05040332c <mini_vsnprintf+0x326>
ffffffc0504030b4:	fef44783          	lbu	a5,-17(s0)
ffffffc0504030b8:	0ff7f713          	andi	a4,a5,255
ffffffc0504030bc:	02f00793          	li	a5,47
ffffffc0504030c0:	04e7fc63          	bgeu	a5,a4,ffffffc050403118 <mini_vsnprintf+0x112>
ffffffc0504030c4:	fef44783          	lbu	a5,-17(s0)
ffffffc0504030c8:	0ff7f713          	andi	a4,a5,255
ffffffc0504030cc:	03900793          	li	a5,57
ffffffc0504030d0:	04e7e463          	bltu	a5,a4,ffffffc050403118 <mini_vsnprintf+0x112>
ffffffc0504030d4:	fee44703          	lbu	a4,-18(s0)
ffffffc0504030d8:	87ba                	mv	a5,a4
ffffffc0504030da:	0027979b          	slliw	a5,a5,0x2
ffffffc0504030de:	9fb9                	addw	a5,a5,a4
ffffffc0504030e0:	0017979b          	slliw	a5,a5,0x1
ffffffc0504030e4:	0ff7f793          	andi	a5,a5,255
ffffffc0504030e8:	fef44703          	lbu	a4,-17(s0)
ffffffc0504030ec:	9fb9                	addw	a5,a5,a4
ffffffc0504030ee:	0ff7f793          	andi	a5,a5,255
ffffffc0504030f2:	fd07879b          	addiw	a5,a5,-48
ffffffc0504030f6:	fef40723          	sb	a5,-18(s0)
ffffffc0504030fa:	f8843783          	ld	a5,-120(s0)
ffffffc0504030fe:	00178713          	addi	a4,a5,1
ffffffc050403102:	f8e43423          	sd	a4,-120(s0)
ffffffc050403106:	0007c783          	lbu	a5,0(a5)
ffffffc05040310a:	fef407a3          	sb	a5,-17(s0)
ffffffc05040310e:	fef44783          	lbu	a5,-17(s0)
ffffffc050403112:	0ff7f793          	andi	a5,a5,255
ffffffc050403116:	fbc9                	bnez	a5,ffffffc0504030a8 <mini_vsnprintf+0xa2>
ffffffc050403118:	fef44783          	lbu	a5,-17(s0)
ffffffc05040311c:	0ff7f713          	andi	a4,a5,255
ffffffc050403120:	06c00793          	li	a5,108
ffffffc050403124:	00f71f63          	bne	a4,a5,ffffffc050403142 <mini_vsnprintf+0x13c>
ffffffc050403128:	4785                	li	a5,1
ffffffc05040312a:	fef42423          	sw	a5,-24(s0)
ffffffc05040312e:	f8843783          	ld	a5,-120(s0)
ffffffc050403132:	00178713          	addi	a4,a5,1
ffffffc050403136:	f8e43423          	sd	a4,-120(s0)
ffffffc05040313a:	0007c783          	lbu	a5,0(a5)
ffffffc05040313e:	fef407a3          	sb	a5,-17(s0)
ffffffc050403142:	fef44783          	lbu	a5,-17(s0)
ffffffc050403146:	2781                	sext.w	a5,a5
ffffffc050403148:	1e078463          	beqz	a5,ffffffc050403330 <mini_vsnprintf+0x32a>
ffffffc05040314c:	873e                	mv	a4,a5
ffffffc05040314e:	1a074263          	bltz	a4,ffffffc0504032f2 <mini_vsnprintf+0x2ec>
ffffffc050403152:	86be                	mv	a3,a5
ffffffc050403154:	07800713          	li	a4,120
ffffffc050403158:	18d74d63          	blt	a4,a3,ffffffc0504032f2 <mini_vsnprintf+0x2ec>
ffffffc05040315c:	86be                	mv	a3,a5
ffffffc05040315e:	05800713          	li	a4,88
ffffffc050403162:	18e6c863          	blt	a3,a4,ffffffc0504032f2 <mini_vsnprintf+0x2ec>
ffffffc050403166:	fa87869b          	addiw	a3,a5,-88
ffffffc05040316a:	0006871b          	sext.w	a4,a3
ffffffc05040316e:	02000793          	li	a5,32
ffffffc050403172:	18e7e063          	bltu	a5,a4,ffffffc0504032f2 <mini_vsnprintf+0x2ec>
ffffffc050403176:	02069793          	slli	a5,a3,0x20
ffffffc05040317a:	9381                	srli	a5,a5,0x20
ffffffc05040317c:	00279713          	slli	a4,a5,0x2
ffffffc050403180:	00001797          	auipc	a5,0x1
ffffffc050403184:	72478793          	addi	a5,a5,1828 # ffffffc0504048a4 <__FUNCTION__.1462+0x184>
ffffffc050403188:	97ba                	add	a5,a5,a4
ffffffc05040318a:	439c                	lw	a5,0(a5)
ffffffc05040318c:	0007871b          	sext.w	a4,a5
ffffffc050403190:	00001797          	auipc	a5,0x1
ffffffc050403194:	71478793          	addi	a5,a5,1812 # ffffffc0504048a4 <__FUNCTION__.1462+0x184>
ffffffc050403198:	97ba                	add	a5,a5,a4
ffffffc05040319a:	8782                	jr	a5
ffffffc05040319c:	4785                	li	a5,1
ffffffc05040319e:	fef42423          	sw	a5,-24(s0)
ffffffc0504031a2:	a295                	j	ffffffc050403306 <mini_vsnprintf+0x300>
ffffffc0504031a4:	fe842783          	lw	a5,-24(s0)
ffffffc0504031a8:	2781                	sext.w	a5,a5
ffffffc0504031aa:	ef81                	bnez	a5,ffffffc0504031c2 <mini_vsnprintf+0x1bc>
ffffffc0504031ac:	f8043783          	ld	a5,-128(s0)
ffffffc0504031b0:	00878713          	addi	a4,a5,8
ffffffc0504031b4:	f8e43023          	sd	a4,-128(s0)
ffffffc0504031b8:	439c                	lw	a5,0(a5)
ffffffc0504031ba:	02079513          	slli	a0,a5,0x20
ffffffc0504031be:	9101                	srli	a0,a0,0x20
ffffffc0504031c0:	a809                	j	ffffffc0504031d2 <mini_vsnprintf+0x1cc>
ffffffc0504031c2:	f8043783          	ld	a5,-128(s0)
ffffffc0504031c6:	00878713          	addi	a4,a5,8
ffffffc0504031ca:	f8e43023          	sd	a4,-128(s0)
ffffffc0504031ce:	639c                	ld	a5,0(a5)
ffffffc0504031d0:	853e                	mv	a0,a5
ffffffc0504031d2:	fef44783          	lbu	a5,-17(s0)
ffffffc0504031d6:	0007871b          	sext.w	a4,a5
ffffffc0504031da:	07500793          	li	a5,117
ffffffc0504031de:	40f707b3          	sub	a5,a4,a5
ffffffc0504031e2:	0017b793          	seqz	a5,a5
ffffffc0504031e6:	0ff7f793          	andi	a5,a5,255
ffffffc0504031ea:	0007869b          	sext.w	a3,a5
ffffffc0504031ee:	fee44783          	lbu	a5,-18(s0)
ffffffc0504031f2:	2781                	sext.w	a5,a5
ffffffc0504031f4:	fa840713          	addi	a4,s0,-88
ffffffc0504031f8:	4601                	li	a2,0
ffffffc0504031fa:	45a9                	li	a1,10
ffffffc0504031fc:	ac9ff0ef          	jal	ra,ffffffc050402cc4 <mini_itoa>
ffffffc050403200:	87aa                	mv	a5,a0
ffffffc050403202:	fcf42e23          	sw	a5,-36(s0)
ffffffc050403206:	fc040693          	addi	a3,s0,-64
ffffffc05040320a:	fdc42703          	lw	a4,-36(s0)
ffffffc05040320e:	fa840793          	addi	a5,s0,-88
ffffffc050403212:	8636                	mv	a2,a3
ffffffc050403214:	85ba                	mv	a1,a4
ffffffc050403216:	853e                	mv	a0,a5
ffffffc050403218:	d39ff0ef          	jal	ra,ffffffc050402f50 <_puts>
ffffffc05040321c:	fe042423          	sw	zero,-24(s0)
ffffffc050403220:	a0dd                	j	ffffffc050403306 <mini_vsnprintf+0x300>
ffffffc050403222:	fe842783          	lw	a5,-24(s0)
ffffffc050403226:	2781                	sext.w	a5,a5
ffffffc050403228:	ef81                	bnez	a5,ffffffc050403240 <mini_vsnprintf+0x23a>
ffffffc05040322a:	f8043783          	ld	a5,-128(s0)
ffffffc05040322e:	00878713          	addi	a4,a5,8
ffffffc050403232:	f8e43023          	sd	a4,-128(s0)
ffffffc050403236:	439c                	lw	a5,0(a5)
ffffffc050403238:	02079513          	slli	a0,a5,0x20
ffffffc05040323c:	9101                	srli	a0,a0,0x20
ffffffc05040323e:	a809                	j	ffffffc050403250 <mini_vsnprintf+0x24a>
ffffffc050403240:	f8043783          	ld	a5,-128(s0)
ffffffc050403244:	00878713          	addi	a4,a5,8
ffffffc050403248:	f8e43023          	sd	a4,-128(s0)
ffffffc05040324c:	639c                	ld	a5,0(a5)
ffffffc05040324e:	853e                	mv	a0,a5
ffffffc050403250:	fef44783          	lbu	a5,-17(s0)
ffffffc050403254:	0007871b          	sext.w	a4,a5
ffffffc050403258:	05800793          	li	a5,88
ffffffc05040325c:	40f707b3          	sub	a5,a4,a5
ffffffc050403260:	0017b793          	seqz	a5,a5
ffffffc050403264:	0ff7f793          	andi	a5,a5,255
ffffffc050403268:	0007861b          	sext.w	a2,a5
ffffffc05040326c:	fee44783          	lbu	a5,-18(s0)
ffffffc050403270:	2781                	sext.w	a5,a5
ffffffc050403272:	fa840713          	addi	a4,s0,-88
ffffffc050403276:	4685                	li	a3,1
ffffffc050403278:	45c1                	li	a1,16
ffffffc05040327a:	a4bff0ef          	jal	ra,ffffffc050402cc4 <mini_itoa>
ffffffc05040327e:	87aa                	mv	a5,a0
ffffffc050403280:	fcf42e23          	sw	a5,-36(s0)
ffffffc050403284:	fc040693          	addi	a3,s0,-64
ffffffc050403288:	fdc42703          	lw	a4,-36(s0)
ffffffc05040328c:	fa840793          	addi	a5,s0,-88
ffffffc050403290:	8636                	mv	a2,a3
ffffffc050403292:	85ba                	mv	a1,a4
ffffffc050403294:	853e                	mv	a0,a5
ffffffc050403296:	cbbff0ef          	jal	ra,ffffffc050402f50 <_puts>
ffffffc05040329a:	fe042423          	sw	zero,-24(s0)
ffffffc05040329e:	a0a5                	j	ffffffc050403306 <mini_vsnprintf+0x300>
ffffffc0504032a0:	f8043783          	ld	a5,-128(s0)
ffffffc0504032a4:	00878713          	addi	a4,a5,8
ffffffc0504032a8:	f8e43023          	sd	a4,-128(s0)
ffffffc0504032ac:	439c                	lw	a5,0(a5)
ffffffc0504032ae:	0ff7f793          	andi	a5,a5,255
ffffffc0504032b2:	2781                	sext.w	a5,a5
ffffffc0504032b4:	fc040713          	addi	a4,s0,-64
ffffffc0504032b8:	85ba                	mv	a1,a4
ffffffc0504032ba:	853e                	mv	a0,a5
ffffffc0504032bc:	c2fff0ef          	jal	ra,ffffffc050402eea <_putc>
ffffffc0504032c0:	a099                	j	ffffffc050403306 <mini_vsnprintf+0x300>
ffffffc0504032c2:	f8043783          	ld	a5,-128(s0)
ffffffc0504032c6:	00878713          	addi	a4,a5,8
ffffffc0504032ca:	f8e43023          	sd	a4,-128(s0)
ffffffc0504032ce:	639c                	ld	a5,0(a5)
ffffffc0504032d0:	fef43023          	sd	a5,-32(s0)
ffffffc0504032d4:	fe043503          	ld	a0,-32(s0)
ffffffc0504032d8:	9b7ff0ef          	jal	ra,ffffffc050402c8e <mini_strlen>
ffffffc0504032dc:	87aa                	mv	a5,a0
ffffffc0504032de:	2781                	sext.w	a5,a5
ffffffc0504032e0:	fc040713          	addi	a4,s0,-64
ffffffc0504032e4:	863a                	mv	a2,a4
ffffffc0504032e6:	85be                	mv	a1,a5
ffffffc0504032e8:	fe043503          	ld	a0,-32(s0)
ffffffc0504032ec:	c65ff0ef          	jal	ra,ffffffc050402f50 <_puts>
ffffffc0504032f0:	a819                	j	ffffffc050403306 <mini_vsnprintf+0x300>
ffffffc0504032f2:	fef44783          	lbu	a5,-17(s0)
ffffffc0504032f6:	2781                	sext.w	a5,a5
ffffffc0504032f8:	fc040713          	addi	a4,s0,-64
ffffffc0504032fc:	85ba                	mv	a1,a4
ffffffc0504032fe:	853e                	mv	a0,a5
ffffffc050403300:	bebff0ef          	jal	ra,ffffffc050402eea <_putc>
ffffffc050403304:	0001                	nop
ffffffc050403306:	f8843783          	ld	a5,-120(s0)
ffffffc05040330a:	00178713          	addi	a4,a5,1
ffffffc05040330e:	f8e43423          	sd	a4,-120(s0)
ffffffc050403312:	0007c783          	lbu	a5,0(a5)
ffffffc050403316:	fef407a3          	sb	a5,-17(s0)
ffffffc05040331a:	fef44783          	lbu	a5,-17(s0)
ffffffc05040331e:	0ff7f793          	andi	a5,a5,255
ffffffc050403322:	d0079ce3          	bnez	a5,ffffffc05040303a <mini_vsnprintf+0x34>
ffffffc050403326:	a031                	j	ffffffc050403332 <mini_vsnprintf+0x32c>
ffffffc050403328:	0001                	nop
ffffffc05040332a:	a021                	j	ffffffc050403332 <mini_vsnprintf+0x32c>
ffffffc05040332c:	0001                	nop
ffffffc05040332e:	a011                	j	ffffffc050403332 <mini_vsnprintf+0x32c>
ffffffc050403330:	0001                	nop
ffffffc050403332:	fc843703          	ld	a4,-56(s0)
ffffffc050403336:	fc043783          	ld	a5,-64(s0)
ffffffc05040333a:	40f707b3          	sub	a5,a4,a5
ffffffc05040333e:	2781                	sext.w	a5,a5
ffffffc050403340:	853e                	mv	a0,a5
ffffffc050403342:	70e6                	ld	ra,120(sp)
ffffffc050403344:	7446                	ld	s0,112(sp)
ffffffc050403346:	6109                	addi	sp,sp,128
ffffffc050403348:	8082                	ret

ffffffc05040334a <_vprint>:
ffffffc05040334a:	7129                	addi	sp,sp,-320
ffffffc05040334c:	fe06                	sd	ra,312(sp)
ffffffc05040334e:	fa22                	sd	s0,304(sp)
ffffffc050403350:	0280                	addi	s0,sp,320
ffffffc050403352:	eca43c23          	sd	a0,-296(s0)
ffffffc050403356:	ecb43823          	sd	a1,-304(s0)
ffffffc05040335a:	ecc43423          	sd	a2,-312(s0)
ffffffc05040335e:	ed043783          	ld	a5,-304(s0)
ffffffc050403362:	fef43023          	sd	a5,-32(s0)
ffffffc050403366:	fe043703          	ld	a4,-32(s0)
ffffffc05040336a:	ee040793          	addi	a5,s0,-288
ffffffc05040336e:	86ba                	mv	a3,a4
ffffffc050403370:	ed843603          	ld	a2,-296(s0)
ffffffc050403374:	10000593          	li	a1,256
ffffffc050403378:	853e                	mv	a0,a5
ffffffc05040337a:	c8dff0ef          	jal	ra,ffffffc050403006 <mini_vsnprintf>
ffffffc05040337e:	87aa                	mv	a5,a0
ffffffc050403380:	fef42423          	sw	a5,-24(s0)
ffffffc050403384:	fe842783          	lw	a5,-24(s0)
ffffffc050403388:	ff040713          	addi	a4,s0,-16
ffffffc05040338c:	97ba                	add	a5,a5,a4
ffffffc05040338e:	ee078823          	sb	zero,-272(a5)
ffffffc050403392:	ee040793          	addi	a5,s0,-288
ffffffc050403396:	ec843703          	ld	a4,-312(s0)
ffffffc05040339a:	853e                	mv	a0,a5
ffffffc05040339c:	9702                	jalr	a4
ffffffc05040339e:	fe042623          	sw	zero,-20(s0)
ffffffc0504033a2:	a0bd                	j	ffffffc050403410 <_vprint+0xc6>
ffffffc0504033a4:	fec42783          	lw	a5,-20(s0)
ffffffc0504033a8:	ff040713          	addi	a4,s0,-16
ffffffc0504033ac:	97ba                	add	a5,a5,a4
ffffffc0504033ae:	ef07c783          	lbu	a5,-272(a5)
ffffffc0504033b2:	873e                	mv	a4,a5
ffffffc0504033b4:	47a9                	li	a5,10
ffffffc0504033b6:	00f71c63          	bne	a4,a5,ffffffc0504033ce <_vprint+0x84>
ffffffc0504033ba:	00023797          	auipc	a5,0x23
ffffffc0504033be:	14678793          	addi	a5,a5,326 # ffffffc050426500 <current_running>
ffffffc0504033c2:	639c                	ld	a5,0(a5)
ffffffc0504033c4:	4ff8                	lw	a4,92(a5)
ffffffc0504033c6:	2705                	addiw	a4,a4,1
ffffffc0504033c8:	2701                	sext.w	a4,a4
ffffffc0504033ca:	cff8                	sw	a4,92(a5)
ffffffc0504033cc:	a82d                	j	ffffffc050403406 <_vprint+0xbc>
ffffffc0504033ce:	fec42783          	lw	a5,-20(s0)
ffffffc0504033d2:	ff040713          	addi	a4,s0,-16
ffffffc0504033d6:	97ba                	add	a5,a5,a4
ffffffc0504033d8:	ef07c783          	lbu	a5,-272(a5)
ffffffc0504033dc:	873e                	mv	a4,a5
ffffffc0504033de:	47b5                	li	a5,13
ffffffc0504033e0:	00f71a63          	bne	a4,a5,ffffffc0504033f4 <_vprint+0xaa>
ffffffc0504033e4:	00023797          	auipc	a5,0x23
ffffffc0504033e8:	11c78793          	addi	a5,a5,284 # ffffffc050426500 <current_running>
ffffffc0504033ec:	639c                	ld	a5,0(a5)
ffffffc0504033ee:	4705                	li	a4,1
ffffffc0504033f0:	cfb8                	sw	a4,88(a5)
ffffffc0504033f2:	a811                	j	ffffffc050403406 <_vprint+0xbc>
ffffffc0504033f4:	00023797          	auipc	a5,0x23
ffffffc0504033f8:	10c78793          	addi	a5,a5,268 # ffffffc050426500 <current_running>
ffffffc0504033fc:	639c                	ld	a5,0(a5)
ffffffc0504033fe:	4fb8                	lw	a4,88(a5)
ffffffc050403400:	2705                	addiw	a4,a4,1
ffffffc050403402:	2701                	sext.w	a4,a4
ffffffc050403404:	cfb8                	sw	a4,88(a5)
ffffffc050403406:	fec42783          	lw	a5,-20(s0)
ffffffc05040340a:	2785                	addiw	a5,a5,1
ffffffc05040340c:	fef42623          	sw	a5,-20(s0)
ffffffc050403410:	fec42703          	lw	a4,-20(s0)
ffffffc050403414:	fe842783          	lw	a5,-24(s0)
ffffffc050403418:	2701                	sext.w	a4,a4
ffffffc05040341a:	2781                	sext.w	a5,a5
ffffffc05040341c:	f8f744e3          	blt	a4,a5,ffffffc0504033a4 <_vprint+0x5a>
ffffffc050403420:	fe842783          	lw	a5,-24(s0)
ffffffc050403424:	853e                	mv	a0,a5
ffffffc050403426:	70f2                	ld	ra,312(sp)
ffffffc050403428:	7452                	ld	s0,304(sp)
ffffffc05040342a:	6131                	addi	sp,sp,320
ffffffc05040342c:	8082                	ret

ffffffc05040342e <vprintk>:
ffffffc05040342e:	1101                	addi	sp,sp,-32
ffffffc050403430:	ec06                	sd	ra,24(sp)
ffffffc050403432:	e822                	sd	s0,16(sp)
ffffffc050403434:	1000                	addi	s0,sp,32
ffffffc050403436:	fea43423          	sd	a0,-24(s0)
ffffffc05040343a:	feb43023          	sd	a1,-32(s0)
ffffffc05040343e:	ffffd617          	auipc	a2,0xffffd
ffffffc050403442:	e4660613          	addi	a2,a2,-442 # ffffffc050400284 <port_write>
ffffffc050403446:	fe043583          	ld	a1,-32(s0)
ffffffc05040344a:	fe843503          	ld	a0,-24(s0)
ffffffc05040344e:	efdff0ef          	jal	ra,ffffffc05040334a <_vprint>
ffffffc050403452:	87aa                	mv	a5,a0
ffffffc050403454:	853e                	mv	a0,a5
ffffffc050403456:	60e2                	ld	ra,24(sp)
ffffffc050403458:	6442                	ld	s0,16(sp)
ffffffc05040345a:	6105                	addi	sp,sp,32
ffffffc05040345c:	8082                	ret

ffffffc05040345e <printk>:
ffffffc05040345e:	7159                	addi	sp,sp,-112
ffffffc050403460:	f406                	sd	ra,40(sp)
ffffffc050403462:	f022                	sd	s0,32(sp)
ffffffc050403464:	1800                	addi	s0,sp,48
ffffffc050403466:	fca43c23          	sd	a0,-40(s0)
ffffffc05040346a:	e40c                	sd	a1,8(s0)
ffffffc05040346c:	e810                	sd	a2,16(s0)
ffffffc05040346e:	ec14                	sd	a3,24(s0)
ffffffc050403470:	f018                	sd	a4,32(s0)
ffffffc050403472:	f41c                	sd	a5,40(s0)
ffffffc050403474:	03043823          	sd	a6,48(s0)
ffffffc050403478:	03143c23          	sd	a7,56(s0)
ffffffc05040347c:	14002073          	csrr	zero,sscratch
ffffffc050403480:	fe042623          	sw	zero,-20(s0)
ffffffc050403484:	04040793          	addi	a5,s0,64
ffffffc050403488:	fcf43823          	sd	a5,-48(s0)
ffffffc05040348c:	fd043783          	ld	a5,-48(s0)
ffffffc050403490:	fc878793          	addi	a5,a5,-56
ffffffc050403494:	fef43023          	sd	a5,-32(s0)
ffffffc050403498:	fe043783          	ld	a5,-32(s0)
ffffffc05040349c:	85be                	mv	a1,a5
ffffffc05040349e:	fd843503          	ld	a0,-40(s0)
ffffffc0504034a2:	f8dff0ef          	jal	ra,ffffffc05040342e <vprintk>
ffffffc0504034a6:	87aa                	mv	a5,a0
ffffffc0504034a8:	fef42623          	sw	a5,-20(s0)
ffffffc0504034ac:	fec42783          	lw	a5,-20(s0)
ffffffc0504034b0:	853e                	mv	a0,a5
ffffffc0504034b2:	70a2                	ld	ra,40(sp)
ffffffc0504034b4:	7402                	ld	s0,32(sp)
ffffffc0504034b6:	6165                	addi	sp,sp,112
ffffffc0504034b8:	8082                	ret

ffffffc0504034ba <vprints>:
ffffffc0504034ba:	1101                	addi	sp,sp,-32
ffffffc0504034bc:	ec06                	sd	ra,24(sp)
ffffffc0504034be:	e822                	sd	s0,16(sp)
ffffffc0504034c0:	1000                	addi	s0,sp,32
ffffffc0504034c2:	fea43423          	sd	a0,-24(s0)
ffffffc0504034c6:	feb43023          	sd	a1,-32(s0)
ffffffc0504034ca:	ffffe617          	auipc	a2,0xffffe
ffffffc0504034ce:	d5060613          	addi	a2,a2,-688 # ffffffc05040121a <screen_write>
ffffffc0504034d2:	fe043583          	ld	a1,-32(s0)
ffffffc0504034d6:	fe843503          	ld	a0,-24(s0)
ffffffc0504034da:	e71ff0ef          	jal	ra,ffffffc05040334a <_vprint>
ffffffc0504034de:	87aa                	mv	a5,a0
ffffffc0504034e0:	853e                	mv	a0,a5
ffffffc0504034e2:	60e2                	ld	ra,24(sp)
ffffffc0504034e4:	6442                	ld	s0,16(sp)
ffffffc0504034e6:	6105                	addi	sp,sp,32
ffffffc0504034e8:	8082                	ret

ffffffc0504034ea <prints>:
ffffffc0504034ea:	7159                	addi	sp,sp,-112
ffffffc0504034ec:	f406                	sd	ra,40(sp)
ffffffc0504034ee:	f022                	sd	s0,32(sp)
ffffffc0504034f0:	1800                	addi	s0,sp,48
ffffffc0504034f2:	fca43c23          	sd	a0,-40(s0)
ffffffc0504034f6:	e40c                	sd	a1,8(s0)
ffffffc0504034f8:	e810                	sd	a2,16(s0)
ffffffc0504034fa:	ec14                	sd	a3,24(s0)
ffffffc0504034fc:	f018                	sd	a4,32(s0)
ffffffc0504034fe:	f41c                	sd	a5,40(s0)
ffffffc050403500:	03043823          	sd	a6,48(s0)
ffffffc050403504:	03143c23          	sd	a7,56(s0)
ffffffc050403508:	fe042623          	sw	zero,-20(s0)
ffffffc05040350c:	04040793          	addi	a5,s0,64
ffffffc050403510:	fcf43823          	sd	a5,-48(s0)
ffffffc050403514:	fd043783          	ld	a5,-48(s0)
ffffffc050403518:	fc878793          	addi	a5,a5,-56
ffffffc05040351c:	fef43023          	sd	a5,-32(s0)
ffffffc050403520:	fe043783          	ld	a5,-32(s0)
ffffffc050403524:	85be                	mv	a1,a5
ffffffc050403526:	fd843503          	ld	a0,-40(s0)
ffffffc05040352a:	f91ff0ef          	jal	ra,ffffffc0504034ba <vprints>
ffffffc05040352e:	87aa                	mv	a5,a0
ffffffc050403530:	fef42623          	sw	a5,-20(s0)
ffffffc050403534:	fec42783          	lw	a5,-20(s0)
ffffffc050403538:	853e                	mv	a0,a5
ffffffc05040353a:	70a2                	ld	ra,40(sp)
ffffffc05040353c:	7402                	ld	s0,32(sp)
ffffffc05040353e:	6165                	addi	sp,sp,112
ffffffc050403540:	8082                	ret

ffffffc050403542 <do_mutex_lock_init>:
ffffffc050403542:	1101                	addi	sp,sp,-32
ffffffc050403544:	ec06                	sd	ra,24(sp)
ffffffc050403546:	e822                	sd	s0,16(sp)
ffffffc050403548:	1000                	addi	s0,sp,32
ffffffc05040354a:	fea43423          	sd	a0,-24(s0)
ffffffc05040354e:	fe843783          	ld	a5,-24(s0)
ffffffc050403552:	07a1                	addi	a5,a5,8
ffffffc050403554:	853e                	mv	a0,a5
ffffffc050403556:	df7fe0ef          	jal	ra,ffffffc05040234c <list_init>
ffffffc05040355a:	fe843783          	ld	a5,-24(s0)
ffffffc05040355e:	0007a023          	sw	zero,0(a5)
ffffffc050403562:	0001                	nop
ffffffc050403564:	60e2                	ld	ra,24(sp)
ffffffc050403566:	6442                	ld	s0,16(sp)
ffffffc050403568:	6105                	addi	sp,sp,32
ffffffc05040356a:	8082                	ret

ffffffc05040356c <do_mutex_lock_acquire>:
ffffffc05040356c:	1101                	addi	sp,sp,-32
ffffffc05040356e:	ec06                	sd	ra,24(sp)
ffffffc050403570:	e822                	sd	s0,16(sp)
ffffffc050403572:	1000                	addi	s0,sp,32
ffffffc050403574:	fea43423          	sd	a0,-24(s0)
ffffffc050403578:	fe843783          	ld	a5,-24(s0)
ffffffc05040357c:	439c                	lw	a5,0(a5)
ffffffc05040357e:	2781                	sext.w	a5,a5
ffffffc050403580:	873e                	mv	a4,a5
ffffffc050403582:	4785                	li	a5,1
ffffffc050403584:	02f71763          	bne	a4,a5,ffffffc0504035b2 <do_mutex_lock_acquire+0x46>
ffffffc050403588:	00001517          	auipc	a0,0x1
ffffffc05040358c:	3a050513          	addi	a0,a0,928 # ffffffc050404928 <__FUNCTION__.1462+0x208>
ffffffc050403590:	f5bff0ef          	jal	ra,ffffffc0504034ea <prints>
ffffffc050403594:	00023797          	auipc	a5,0x23
ffffffc050403598:	f6c78793          	addi	a5,a5,-148 # ffffffc050426500 <current_running>
ffffffc05040359c:	639c                	ld	a5,0(a5)
ffffffc05040359e:	02878713          	addi	a4,a5,40
ffffffc0504035a2:	fe843783          	ld	a5,-24(s0)
ffffffc0504035a6:	07a1                	addi	a5,a5,8
ffffffc0504035a8:	85be                	mv	a1,a5
ffffffc0504035aa:	853a                	mv	a0,a4
ffffffc0504035ac:	f6afe0ef          	jal	ra,ffffffc050401d16 <do_block>
ffffffc0504035b0:	a081                	j	ffffffc0504035f0 <do_mutex_lock_acquire+0x84>
ffffffc0504035b2:	fe843783          	ld	a5,-24(s0)
ffffffc0504035b6:	4705                	li	a4,1
ffffffc0504035b8:	c398                	sw	a4,0(a5)
ffffffc0504035ba:	00023797          	auipc	a5,0x23
ffffffc0504035be:	f4678793          	addi	a5,a5,-186 # ffffffc050426500 <current_running>
ffffffc0504035c2:	6394                	ld	a3,0(a5)
ffffffc0504035c4:	00023797          	auipc	a5,0x23
ffffffc0504035c8:	f3c78793          	addi	a5,a5,-196 # ffffffc050426500 <current_running>
ffffffc0504035cc:	6398                	ld	a4,0(a5)
ffffffc0504035ce:	573c                	lw	a5,104(a4)
ffffffc0504035d0:	0017861b          	addiw	a2,a5,1
ffffffc0504035d4:	2601                	sext.w	a2,a2
ffffffc0504035d6:	d730                	sw	a2,104(a4)
ffffffc0504035d8:	07b9                	addi	a5,a5,14
ffffffc0504035da:	078e                	slli	a5,a5,0x3
ffffffc0504035dc:	97b6                	add	a5,a5,a3
ffffffc0504035de:	fe843703          	ld	a4,-24(s0)
ffffffc0504035e2:	e398                	sd	a4,0(a5)
ffffffc0504035e4:	00001517          	auipc	a0,0x1
ffffffc0504035e8:	37c50513          	addi	a0,a0,892 # ffffffc050404960 <__FUNCTION__.1462+0x240>
ffffffc0504035ec:	effff0ef          	jal	ra,ffffffc0504034ea <prints>
ffffffc0504035f0:	0001                	nop
ffffffc0504035f2:	60e2                	ld	ra,24(sp)
ffffffc0504035f4:	6442                	ld	s0,16(sp)
ffffffc0504035f6:	6105                	addi	sp,sp,32
ffffffc0504035f8:	8082                	ret

ffffffc0504035fa <do_mutex_lock_release>:
ffffffc0504035fa:	7179                	addi	sp,sp,-48
ffffffc0504035fc:	f406                	sd	ra,40(sp)
ffffffc0504035fe:	f022                	sd	s0,32(sp)
ffffffc050403600:	1800                	addi	s0,sp,48
ffffffc050403602:	fca43c23          	sd	a0,-40(s0)
ffffffc050403606:	fe042423          	sw	zero,-24(s0)
ffffffc05040360a:	0001                	nop
ffffffc05040360c:	00023797          	auipc	a5,0x23
ffffffc050403610:	ef478793          	addi	a5,a5,-268 # ffffffc050426500 <current_running>
ffffffc050403614:	639c                	ld	a5,0(a5)
ffffffc050403616:	57b8                	lw	a4,104(a5)
ffffffc050403618:	fe842783          	lw	a5,-24(s0)
ffffffc05040361c:	2781                	sext.w	a5,a5
ffffffc05040361e:	08e7df63          	bge	a5,a4,ffffffc0504036bc <do_mutex_lock_release+0xc2>
ffffffc050403622:	00023797          	auipc	a5,0x23
ffffffc050403626:	ede78793          	addi	a5,a5,-290 # ffffffc050426500 <current_running>
ffffffc05040362a:	6398                	ld	a4,0(a5)
ffffffc05040362c:	fe842783          	lw	a5,-24(s0)
ffffffc050403630:	07b9                	addi	a5,a5,14
ffffffc050403632:	078e                	slli	a5,a5,0x3
ffffffc050403634:	97ba                	add	a5,a5,a4
ffffffc050403636:	639c                	ld	a5,0(a5)
ffffffc050403638:	fd843703          	ld	a4,-40(s0)
ffffffc05040363c:	06f71963          	bne	a4,a5,ffffffc0504036ae <do_mutex_lock_release+0xb4>
ffffffc050403640:	fe842783          	lw	a5,-24(s0)
ffffffc050403644:	fef42623          	sw	a5,-20(s0)
ffffffc050403648:	a835                	j	ffffffc050403684 <do_mutex_lock_release+0x8a>
ffffffc05040364a:	00023797          	auipc	a5,0x23
ffffffc05040364e:	eb678793          	addi	a5,a5,-330 # ffffffc050426500 <current_running>
ffffffc050403652:	6398                	ld	a4,0(a5)
ffffffc050403654:	fec42783          	lw	a5,-20(s0)
ffffffc050403658:	2785                	addiw	a5,a5,1
ffffffc05040365a:	2781                	sext.w	a5,a5
ffffffc05040365c:	00023697          	auipc	a3,0x23
ffffffc050403660:	ea468693          	addi	a3,a3,-348 # ffffffc050426500 <current_running>
ffffffc050403664:	6294                	ld	a3,0(a3)
ffffffc050403666:	07b9                	addi	a5,a5,14
ffffffc050403668:	078e                	slli	a5,a5,0x3
ffffffc05040366a:	97ba                	add	a5,a5,a4
ffffffc05040366c:	6398                	ld	a4,0(a5)
ffffffc05040366e:	fec42783          	lw	a5,-20(s0)
ffffffc050403672:	07b9                	addi	a5,a5,14
ffffffc050403674:	078e                	slli	a5,a5,0x3
ffffffc050403676:	97b6                	add	a5,a5,a3
ffffffc050403678:	e398                	sd	a4,0(a5)
ffffffc05040367a:	fec42783          	lw	a5,-20(s0)
ffffffc05040367e:	2785                	addiw	a5,a5,1
ffffffc050403680:	fef42623          	sw	a5,-20(s0)
ffffffc050403684:	00023797          	auipc	a5,0x23
ffffffc050403688:	e7c78793          	addi	a5,a5,-388 # ffffffc050426500 <current_running>
ffffffc05040368c:	639c                	ld	a5,0(a5)
ffffffc05040368e:	57b8                	lw	a4,104(a5)
ffffffc050403690:	fec42783          	lw	a5,-20(s0)
ffffffc050403694:	2781                	sext.w	a5,a5
ffffffc050403696:	fae7cae3          	blt	a5,a4,ffffffc05040364a <do_mutex_lock_release+0x50>
ffffffc05040369a:	00023797          	auipc	a5,0x23
ffffffc05040369e:	e6678793          	addi	a5,a5,-410 # ffffffc050426500 <current_running>
ffffffc0504036a2:	639c                	ld	a5,0(a5)
ffffffc0504036a4:	57b8                	lw	a4,104(a5)
ffffffc0504036a6:	377d                	addiw	a4,a4,-1
ffffffc0504036a8:	2701                	sext.w	a4,a4
ffffffc0504036aa:	d7b8                	sw	a4,104(a5)
ffffffc0504036ac:	a801                	j	ffffffc0504036bc <do_mutex_lock_release+0xc2>
ffffffc0504036ae:	00001517          	auipc	a0,0x1
ffffffc0504036b2:	2da50513          	addi	a0,a0,730 # ffffffc050404988 <__FUNCTION__.1462+0x268>
ffffffc0504036b6:	e35ff0ef          	jal	ra,ffffffc0504034ea <prints>
ffffffc0504036ba:	a835                	j	ffffffc0504036f6 <do_mutex_lock_release+0xfc>
ffffffc0504036bc:	fd843783          	ld	a5,-40(s0)
ffffffc0504036c0:	07a1                	addi	a5,a5,8
ffffffc0504036c2:	853e                	mv	a0,a5
ffffffc0504036c4:	caffe0ef          	jal	ra,ffffffc050402372 <is_list_empty>
ffffffc0504036c8:	87aa                	mv	a5,a0
ffffffc0504036ca:	cf81                	beqz	a5,ffffffc0504036e2 <do_mutex_lock_release+0xe8>
ffffffc0504036cc:	fd843783          	ld	a5,-40(s0)
ffffffc0504036d0:	0007a023          	sw	zero,0(a5)
ffffffc0504036d4:	00001517          	auipc	a0,0x1
ffffffc0504036d8:	2fc50513          	addi	a0,a0,764 # ffffffc0504049d0 <__FUNCTION__.1462+0x2b0>
ffffffc0504036dc:	e0fff0ef          	jal	ra,ffffffc0504034ea <prints>
ffffffc0504036e0:	a819                	j	ffffffc0504036f6 <do_mutex_lock_release+0xfc>
ffffffc0504036e2:	fd843783          	ld	a5,-40(s0)
ffffffc0504036e6:	07a1                	addi	a5,a5,8
ffffffc0504036e8:	853e                	mv	a0,a5
ffffffc0504036ea:	cf1fe0ef          	jal	ra,ffffffc0504023da <dequeue>
ffffffc0504036ee:	87aa                	mv	a5,a0
ffffffc0504036f0:	853e                	mv	a0,a5
ffffffc0504036f2:	e5cfe0ef          	jal	ra,ffffffc050401d4e <do_unblock>
ffffffc0504036f6:	70a2                	ld	ra,40(sp)
ffffffc0504036f8:	7402                	ld	s0,32(sp)
ffffffc0504036fa:	6145                	addi	sp,sp,48
ffffffc0504036fc:	8082                	ret

ffffffc0504036fe <mutex_get>:
ffffffc0504036fe:	1101                	addi	sp,sp,-32
ffffffc050403700:	ec06                	sd	ra,24(sp)
ffffffc050403702:	e822                	sd	s0,16(sp)
ffffffc050403704:	1000                	addi	s0,sp,32
ffffffc050403706:	87aa                	mv	a5,a0
ffffffc050403708:	fef42623          	sw	a5,-20(s0)
ffffffc05040370c:	fec42783          	lw	a5,-20(s0)
ffffffc050403710:	853e                	mv	a0,a5
ffffffc050403712:	0e2000ef          	jal	ra,ffffffc0504037f4 <lock_fetchhash>
ffffffc050403716:	87aa                	mv	a5,a0
ffffffc050403718:	873e                	mv	a4,a5
ffffffc05040371a:	57fd                	li	a5,-1
ffffffc05040371c:	06f71063          	bne	a4,a5,ffffffc05040377c <mutex_get+0x7e>
ffffffc050403720:	00023797          	auipc	a5,0x23
ffffffc050403724:	ce078793          	addi	a5,a5,-800 # ffffffc050426400 <lock_id>
ffffffc050403728:	439c                	lw	a5,0(a5)
ffffffc05040372a:	00025717          	auipc	a4,0x25
ffffffc05040372e:	b9e70713          	addi	a4,a4,-1122 # ffffffc0504282c8 <lock_hash>
ffffffc050403732:	078a                	slli	a5,a5,0x2
ffffffc050403734:	97ba                	add	a5,a5,a4
ffffffc050403736:	fec42703          	lw	a4,-20(s0)
ffffffc05040373a:	c398                	sw	a4,0(a5)
ffffffc05040373c:	00023797          	auipc	a5,0x23
ffffffc050403740:	cc478793          	addi	a5,a5,-828 # ffffffc050426400 <lock_id>
ffffffc050403744:	4398                	lw	a4,0(a5)
ffffffc050403746:	87ba                	mv	a5,a4
ffffffc050403748:	0786                	slli	a5,a5,0x1
ffffffc05040374a:	97ba                	add	a5,a5,a4
ffffffc05040374c:	078e                	slli	a5,a5,0x3
ffffffc05040374e:	00024717          	auipc	a4,0x24
ffffffc050403752:	d3a70713          	addi	a4,a4,-710 # ffffffc050427488 <lock>
ffffffc050403756:	97ba                	add	a5,a5,a4
ffffffc050403758:	853e                	mv	a0,a5
ffffffc05040375a:	de9ff0ef          	jal	ra,ffffffc050403542 <do_mutex_lock_init>
ffffffc05040375e:	00023797          	auipc	a5,0x23
ffffffc050403762:	ca278793          	addi	a5,a5,-862 # ffffffc050426400 <lock_id>
ffffffc050403766:	439c                	lw	a5,0(a5)
ffffffc050403768:	0017871b          	addiw	a4,a5,1
ffffffc05040376c:	0007069b          	sext.w	a3,a4
ffffffc050403770:	00023717          	auipc	a4,0x23
ffffffc050403774:	c9070713          	addi	a4,a4,-880 # ffffffc050426400 <lock_id>
ffffffc050403778:	c314                	sw	a3,0(a4)
ffffffc05040377a:	a039                	j	ffffffc050403788 <mutex_get+0x8a>
ffffffc05040377c:	fec42783          	lw	a5,-20(s0)
ffffffc050403780:	853e                	mv	a0,a5
ffffffc050403782:	072000ef          	jal	ra,ffffffc0504037f4 <lock_fetchhash>
ffffffc050403786:	87aa                	mv	a5,a0
ffffffc050403788:	853e                	mv	a0,a5
ffffffc05040378a:	60e2                	ld	ra,24(sp)
ffffffc05040378c:	6442                	ld	s0,16(sp)
ffffffc05040378e:	6105                	addi	sp,sp,32
ffffffc050403790:	8082                	ret

ffffffc050403792 <mutex_op>:
ffffffc050403792:	1101                	addi	sp,sp,-32
ffffffc050403794:	ec06                	sd	ra,24(sp)
ffffffc050403796:	e822                	sd	s0,16(sp)
ffffffc050403798:	1000                	addi	s0,sp,32
ffffffc05040379a:	87aa                	mv	a5,a0
ffffffc05040379c:	872e                	mv	a4,a1
ffffffc05040379e:	fef42623          	sw	a5,-20(s0)
ffffffc0504037a2:	87ba                	mv	a5,a4
ffffffc0504037a4:	fef42423          	sw	a5,-24(s0)
ffffffc0504037a8:	fe842783          	lw	a5,-24(s0)
ffffffc0504037ac:	2781                	sext.w	a5,a5
ffffffc0504037ae:	e385                	bnez	a5,ffffffc0504037ce <mutex_op+0x3c>
ffffffc0504037b0:	fec42703          	lw	a4,-20(s0)
ffffffc0504037b4:	87ba                	mv	a5,a4
ffffffc0504037b6:	0786                	slli	a5,a5,0x1
ffffffc0504037b8:	97ba                	add	a5,a5,a4
ffffffc0504037ba:	078e                	slli	a5,a5,0x3
ffffffc0504037bc:	00024717          	auipc	a4,0x24
ffffffc0504037c0:	ccc70713          	addi	a4,a4,-820 # ffffffc050427488 <lock>
ffffffc0504037c4:	97ba                	add	a5,a5,a4
ffffffc0504037c6:	853e                	mv	a0,a5
ffffffc0504037c8:	da5ff0ef          	jal	ra,ffffffc05040356c <do_mutex_lock_acquire>
ffffffc0504037cc:	a839                	j	ffffffc0504037ea <mutex_op+0x58>
ffffffc0504037ce:	fec42703          	lw	a4,-20(s0)
ffffffc0504037d2:	87ba                	mv	a5,a4
ffffffc0504037d4:	0786                	slli	a5,a5,0x1
ffffffc0504037d6:	97ba                	add	a5,a5,a4
ffffffc0504037d8:	078e                	slli	a5,a5,0x3
ffffffc0504037da:	00024717          	auipc	a4,0x24
ffffffc0504037de:	cae70713          	addi	a4,a4,-850 # ffffffc050427488 <lock>
ffffffc0504037e2:	97ba                	add	a5,a5,a4
ffffffc0504037e4:	853e                	mv	a0,a5
ffffffc0504037e6:	e15ff0ef          	jal	ra,ffffffc0504035fa <do_mutex_lock_release>
ffffffc0504037ea:	0001                	nop
ffffffc0504037ec:	60e2                	ld	ra,24(sp)
ffffffc0504037ee:	6442                	ld	s0,16(sp)
ffffffc0504037f0:	6105                	addi	sp,sp,32
ffffffc0504037f2:	8082                	ret

ffffffc0504037f4 <lock_fetchhash>:
ffffffc0504037f4:	7179                	addi	sp,sp,-48
ffffffc0504037f6:	f422                	sd	s0,40(sp)
ffffffc0504037f8:	1800                	addi	s0,sp,48
ffffffc0504037fa:	87aa                	mv	a5,a0
ffffffc0504037fc:	fcf42e23          	sw	a5,-36(s0)
ffffffc050403800:	fe042623          	sw	zero,-20(s0)
ffffffc050403804:	a03d                	j	ffffffc050403832 <lock_fetchhash+0x3e>
ffffffc050403806:	00025717          	auipc	a4,0x25
ffffffc05040380a:	ac270713          	addi	a4,a4,-1342 # ffffffc0504282c8 <lock_hash>
ffffffc05040380e:	fec42783          	lw	a5,-20(s0)
ffffffc050403812:	078a                	slli	a5,a5,0x2
ffffffc050403814:	97ba                	add	a5,a5,a4
ffffffc050403816:	4398                	lw	a4,0(a5)
ffffffc050403818:	fdc42783          	lw	a5,-36(s0)
ffffffc05040381c:	2781                	sext.w	a5,a5
ffffffc05040381e:	00e79563          	bne	a5,a4,ffffffc050403828 <lock_fetchhash+0x34>
ffffffc050403822:	fec42783          	lw	a5,-20(s0)
ffffffc050403826:	a831                	j	ffffffc050403842 <lock_fetchhash+0x4e>
ffffffc050403828:	fec42783          	lw	a5,-20(s0)
ffffffc05040382c:	2785                	addiw	a5,a5,1
ffffffc05040382e:	fef42623          	sw	a5,-20(s0)
ffffffc050403832:	fec42783          	lw	a5,-20(s0)
ffffffc050403836:	0007871b          	sext.w	a4,a5
ffffffc05040383a:	47bd                	li	a5,15
ffffffc05040383c:	fce7d5e3          	bge	a5,a4,ffffffc050403806 <lock_fetchhash+0x12>
ffffffc050403840:	57fd                	li	a5,-1
ffffffc050403842:	853e                	mv	a0,a5
ffffffc050403844:	7422                	ld	s0,40(sp)
ffffffc050403846:	6145                	addi	sp,sp,48
ffffffc050403848:	8082                	ret

ffffffc05040384a <semaphore_fetchhash>:
ffffffc05040384a:	7179                	addi	sp,sp,-48
ffffffc05040384c:	f422                	sd	s0,40(sp)
ffffffc05040384e:	1800                	addi	s0,sp,48
ffffffc050403850:	87aa                	mv	a5,a0
ffffffc050403852:	fcf42e23          	sw	a5,-36(s0)
ffffffc050403856:	fe042623          	sw	zero,-20(s0)
ffffffc05040385a:	a03d                	j	ffffffc050403888 <semaphore_fetchhash+0x3e>
ffffffc05040385c:	00025717          	auipc	a4,0x25
ffffffc050403860:	aac70713          	addi	a4,a4,-1364 # ffffffc050428308 <semaphore_hash>
ffffffc050403864:	fec42783          	lw	a5,-20(s0)
ffffffc050403868:	078a                	slli	a5,a5,0x2
ffffffc05040386a:	97ba                	add	a5,a5,a4
ffffffc05040386c:	4398                	lw	a4,0(a5)
ffffffc05040386e:	fdc42783          	lw	a5,-36(s0)
ffffffc050403872:	2781                	sext.w	a5,a5
ffffffc050403874:	00e79563          	bne	a5,a4,ffffffc05040387e <semaphore_fetchhash+0x34>
ffffffc050403878:	fec42783          	lw	a5,-20(s0)
ffffffc05040387c:	a831                	j	ffffffc050403898 <semaphore_fetchhash+0x4e>
ffffffc05040387e:	fec42783          	lw	a5,-20(s0)
ffffffc050403882:	2785                	addiw	a5,a5,1
ffffffc050403884:	fef42623          	sw	a5,-20(s0)
ffffffc050403888:	fec42783          	lw	a5,-20(s0)
ffffffc05040388c:	0007871b          	sext.w	a4,a5
ffffffc050403890:	47bd                	li	a5,15
ffffffc050403892:	fce7d5e3          	bge	a5,a4,ffffffc05040385c <semaphore_fetchhash+0x12>
ffffffc050403896:	57fd                	li	a5,-1
ffffffc050403898:	853e                	mv	a0,a5
ffffffc05040389a:	7422                	ld	s0,40(sp)
ffffffc05040389c:	6145                	addi	sp,sp,48
ffffffc05040389e:	8082                	ret

ffffffc0504038a0 <barrier_fetchhash>:
ffffffc0504038a0:	7179                	addi	sp,sp,-48
ffffffc0504038a2:	f422                	sd	s0,40(sp)
ffffffc0504038a4:	1800                	addi	s0,sp,48
ffffffc0504038a6:	87aa                	mv	a5,a0
ffffffc0504038a8:	fcf42e23          	sw	a5,-36(s0)
ffffffc0504038ac:	fe042623          	sw	zero,-20(s0)
ffffffc0504038b0:	a03d                	j	ffffffc0504038de <barrier_fetchhash+0x3e>
ffffffc0504038b2:	00025717          	auipc	a4,0x25
ffffffc0504038b6:	9d670713          	addi	a4,a4,-1578 # ffffffc050428288 <barrier_hash>
ffffffc0504038ba:	fec42783          	lw	a5,-20(s0)
ffffffc0504038be:	078a                	slli	a5,a5,0x2
ffffffc0504038c0:	97ba                	add	a5,a5,a4
ffffffc0504038c2:	4398                	lw	a4,0(a5)
ffffffc0504038c4:	fdc42783          	lw	a5,-36(s0)
ffffffc0504038c8:	2781                	sext.w	a5,a5
ffffffc0504038ca:	00e79563          	bne	a5,a4,ffffffc0504038d4 <barrier_fetchhash+0x34>
ffffffc0504038ce:	fec42783          	lw	a5,-20(s0)
ffffffc0504038d2:	a831                	j	ffffffc0504038ee <barrier_fetchhash+0x4e>
ffffffc0504038d4:	fec42783          	lw	a5,-20(s0)
ffffffc0504038d8:	2785                	addiw	a5,a5,1
ffffffc0504038da:	fef42623          	sw	a5,-20(s0)
ffffffc0504038de:	fec42783          	lw	a5,-20(s0)
ffffffc0504038e2:	0007871b          	sext.w	a4,a5
ffffffc0504038e6:	47bd                	li	a5,15
ffffffc0504038e8:	fce7d5e3          	bge	a5,a4,ffffffc0504038b2 <barrier_fetchhash+0x12>
ffffffc0504038ec:	57fd                	li	a5,-1
ffffffc0504038ee:	853e                	mv	a0,a5
ffffffc0504038f0:	7422                	ld	s0,40(sp)
ffffffc0504038f2:	6145                	addi	sp,sp,48
ffffffc0504038f4:	8082                	ret

ffffffc0504038f6 <do_semaphore_init>:
ffffffc0504038f6:	1101                	addi	sp,sp,-32
ffffffc0504038f8:	ec06                	sd	ra,24(sp)
ffffffc0504038fa:	e822                	sd	s0,16(sp)
ffffffc0504038fc:	1000                	addi	s0,sp,32
ffffffc0504038fe:	fea43423          	sd	a0,-24(s0)
ffffffc050403902:	87ae                	mv	a5,a1
ffffffc050403904:	fef42223          	sw	a5,-28(s0)
ffffffc050403908:	fe843783          	ld	a5,-24(s0)
ffffffc05040390c:	fe442703          	lw	a4,-28(s0)
ffffffc050403910:	c398                	sw	a4,0(a5)
ffffffc050403912:	fe843783          	ld	a5,-24(s0)
ffffffc050403916:	0007ac23          	sw	zero,24(a5)
ffffffc05040391a:	fe843783          	ld	a5,-24(s0)
ffffffc05040391e:	07a1                	addi	a5,a5,8
ffffffc050403920:	853e                	mv	a0,a5
ffffffc050403922:	a2bfe0ef          	jal	ra,ffffffc05040234c <list_init>
ffffffc050403926:	0001                	nop
ffffffc050403928:	60e2                	ld	ra,24(sp)
ffffffc05040392a:	6442                	ld	s0,16(sp)
ffffffc05040392c:	6105                	addi	sp,sp,32
ffffffc05040392e:	8082                	ret

ffffffc050403930 <do_semaphore_up>:
ffffffc050403930:	1101                	addi	sp,sp,-32
ffffffc050403932:	ec06                	sd	ra,24(sp)
ffffffc050403934:	e822                	sd	s0,16(sp)
ffffffc050403936:	1000                	addi	s0,sp,32
ffffffc050403938:	fea43423          	sd	a0,-24(s0)
ffffffc05040393c:	fe843783          	ld	a5,-24(s0)
ffffffc050403940:	439c                	lw	a5,0(a5)
ffffffc050403942:	2785                	addiw	a5,a5,1
ffffffc050403944:	0007871b          	sext.w	a4,a5
ffffffc050403948:	fe843783          	ld	a5,-24(s0)
ffffffc05040394c:	c398                	sw	a4,0(a5)
ffffffc05040394e:	fe843783          	ld	a5,-24(s0)
ffffffc050403952:	07a1                	addi	a5,a5,8
ffffffc050403954:	853e                	mv	a0,a5
ffffffc050403956:	a1dfe0ef          	jal	ra,ffffffc050402372 <is_list_empty>
ffffffc05040395a:	87aa                	mv	a5,a0
ffffffc05040395c:	eb99                	bnez	a5,ffffffc050403972 <do_semaphore_up+0x42>
ffffffc05040395e:	fe843783          	ld	a5,-24(s0)
ffffffc050403962:	07a1                	addi	a5,a5,8
ffffffc050403964:	853e                	mv	a0,a5
ffffffc050403966:	a75fe0ef          	jal	ra,ffffffc0504023da <dequeue>
ffffffc05040396a:	87aa                	mv	a5,a0
ffffffc05040396c:	853e                	mv	a0,a5
ffffffc05040396e:	be0fe0ef          	jal	ra,ffffffc050401d4e <do_unblock>
ffffffc050403972:	0001                	nop
ffffffc050403974:	60e2                	ld	ra,24(sp)
ffffffc050403976:	6442                	ld	s0,16(sp)
ffffffc050403978:	6105                	addi	sp,sp,32
ffffffc05040397a:	8082                	ret

ffffffc05040397c <do_semaphore_down>:
ffffffc05040397c:	1101                	addi	sp,sp,-32
ffffffc05040397e:	ec06                	sd	ra,24(sp)
ffffffc050403980:	e822                	sd	s0,16(sp)
ffffffc050403982:	1000                	addi	s0,sp,32
ffffffc050403984:	fea43423          	sd	a0,-24(s0)
ffffffc050403988:	fe843783          	ld	a5,-24(s0)
ffffffc05040398c:	439c                	lw	a5,0(a5)
ffffffc05040398e:	37fd                	addiw	a5,a5,-1
ffffffc050403990:	0007871b          	sext.w	a4,a5
ffffffc050403994:	fe843783          	ld	a5,-24(s0)
ffffffc050403998:	c398                	sw	a4,0(a5)
ffffffc05040399a:	fe843783          	ld	a5,-24(s0)
ffffffc05040399e:	439c                	lw	a5,0(a5)
ffffffc0504039a0:	0207d063          	bgez	a5,ffffffc0504039c0 <do_semaphore_down+0x44>
ffffffc0504039a4:	00023797          	auipc	a5,0x23
ffffffc0504039a8:	b5c78793          	addi	a5,a5,-1188 # ffffffc050426500 <current_running>
ffffffc0504039ac:	639c                	ld	a5,0(a5)
ffffffc0504039ae:	02878713          	addi	a4,a5,40
ffffffc0504039b2:	fe843783          	ld	a5,-24(s0)
ffffffc0504039b6:	07a1                	addi	a5,a5,8
ffffffc0504039b8:	85be                	mv	a1,a5
ffffffc0504039ba:	853a                	mv	a0,a4
ffffffc0504039bc:	b5afe0ef          	jal	ra,ffffffc050401d16 <do_block>
ffffffc0504039c0:	0001                	nop
ffffffc0504039c2:	60e2                	ld	ra,24(sp)
ffffffc0504039c4:	6442                	ld	s0,16(sp)
ffffffc0504039c6:	6105                	addi	sp,sp,32
ffffffc0504039c8:	8082                	ret

ffffffc0504039ca <do_semaphore_destroy>:
ffffffc0504039ca:	1101                	addi	sp,sp,-32
ffffffc0504039cc:	ec06                	sd	ra,24(sp)
ffffffc0504039ce:	e822                	sd	s0,16(sp)
ffffffc0504039d0:	1000                	addi	s0,sp,32
ffffffc0504039d2:	fea43423          	sd	a0,-24(s0)
ffffffc0504039d6:	fe843783          	ld	a5,-24(s0)
ffffffc0504039da:	0007a023          	sw	zero,0(a5)
ffffffc0504039de:	fe843783          	ld	a5,-24(s0)
ffffffc0504039e2:	4705                	li	a4,1
ffffffc0504039e4:	cf98                	sw	a4,24(a5)
ffffffc0504039e6:	a819                	j	ffffffc0504039fc <do_semaphore_destroy+0x32>
ffffffc0504039e8:	fe843783          	ld	a5,-24(s0)
ffffffc0504039ec:	07a1                	addi	a5,a5,8
ffffffc0504039ee:	853e                	mv	a0,a5
ffffffc0504039f0:	9ebfe0ef          	jal	ra,ffffffc0504023da <dequeue>
ffffffc0504039f4:	87aa                	mv	a5,a0
ffffffc0504039f6:	853e                	mv	a0,a5
ffffffc0504039f8:	b56fe0ef          	jal	ra,ffffffc050401d4e <do_unblock>
ffffffc0504039fc:	fe843783          	ld	a5,-24(s0)
ffffffc050403a00:	07a1                	addi	a5,a5,8
ffffffc050403a02:	853e                	mv	a0,a5
ffffffc050403a04:	96ffe0ef          	jal	ra,ffffffc050402372 <is_list_empty>
ffffffc050403a08:	87aa                	mv	a5,a0
ffffffc050403a0a:	dff9                	beqz	a5,ffffffc0504039e8 <do_semaphore_destroy+0x1e>
ffffffc050403a0c:	0001                	nop
ffffffc050403a0e:	0001                	nop
ffffffc050403a10:	60e2                	ld	ra,24(sp)
ffffffc050403a12:	6442                	ld	s0,16(sp)
ffffffc050403a14:	6105                	addi	sp,sp,32
ffffffc050403a16:	8082                	ret

ffffffc050403a18 <semaphore_init>:
ffffffc050403a18:	1101                	addi	sp,sp,-32
ffffffc050403a1a:	ec06                	sd	ra,24(sp)
ffffffc050403a1c:	e822                	sd	s0,16(sp)
ffffffc050403a1e:	1000                	addi	s0,sp,32
ffffffc050403a20:	87aa                	mv	a5,a0
ffffffc050403a22:	872e                	mv	a4,a1
ffffffc050403a24:	fef42623          	sw	a5,-20(s0)
ffffffc050403a28:	87ba                	mv	a5,a4
ffffffc050403a2a:	fef42423          	sw	a5,-24(s0)
ffffffc050403a2e:	fec42783          	lw	a5,-20(s0)
ffffffc050403a32:	00579713          	slli	a4,a5,0x5
ffffffc050403a36:	00024797          	auipc	a5,0x24
ffffffc050403a3a:	bd278793          	addi	a5,a5,-1070 # ffffffc050427608 <semaphore>
ffffffc050403a3e:	97ba                	add	a5,a5,a4
ffffffc050403a40:	fe842703          	lw	a4,-24(s0)
ffffffc050403a44:	85ba                	mv	a1,a4
ffffffc050403a46:	853e                	mv	a0,a5
ffffffc050403a48:	eafff0ef          	jal	ra,ffffffc0504038f6 <do_semaphore_init>
ffffffc050403a4c:	0001                	nop
ffffffc050403a4e:	60e2                	ld	ra,24(sp)
ffffffc050403a50:	6442                	ld	s0,16(sp)
ffffffc050403a52:	6105                	addi	sp,sp,32
ffffffc050403a54:	8082                	ret

ffffffc050403a56 <semaphore_get>:
ffffffc050403a56:	1101                	addi	sp,sp,-32
ffffffc050403a58:	ec06                	sd	ra,24(sp)
ffffffc050403a5a:	e822                	sd	s0,16(sp)
ffffffc050403a5c:	1000                	addi	s0,sp,32
ffffffc050403a5e:	87aa                	mv	a5,a0
ffffffc050403a60:	fef42623          	sw	a5,-20(s0)
ffffffc050403a64:	fec42783          	lw	a5,-20(s0)
ffffffc050403a68:	853e                	mv	a0,a5
ffffffc050403a6a:	de1ff0ef          	jal	ra,ffffffc05040384a <semaphore_fetchhash>
ffffffc050403a6e:	87aa                	mv	a5,a0
ffffffc050403a70:	873e                	mv	a4,a5
ffffffc050403a72:	57fd                	li	a5,-1
ffffffc050403a74:	02f71f63          	bne	a4,a5,ffffffc050403ab2 <semaphore_get+0x5c>
ffffffc050403a78:	00023797          	auipc	a5,0x23
ffffffc050403a7c:	98c78793          	addi	a5,a5,-1652 # ffffffc050426404 <semaphore_id>
ffffffc050403a80:	439c                	lw	a5,0(a5)
ffffffc050403a82:	00025717          	auipc	a4,0x25
ffffffc050403a86:	88670713          	addi	a4,a4,-1914 # ffffffc050428308 <semaphore_hash>
ffffffc050403a8a:	078a                	slli	a5,a5,0x2
ffffffc050403a8c:	97ba                	add	a5,a5,a4
ffffffc050403a8e:	fec42703          	lw	a4,-20(s0)
ffffffc050403a92:	c398                	sw	a4,0(a5)
ffffffc050403a94:	00023797          	auipc	a5,0x23
ffffffc050403a98:	97078793          	addi	a5,a5,-1680 # ffffffc050426404 <semaphore_id>
ffffffc050403a9c:	439c                	lw	a5,0(a5)
ffffffc050403a9e:	0017871b          	addiw	a4,a5,1
ffffffc050403aa2:	0007069b          	sext.w	a3,a4
ffffffc050403aa6:	00023717          	auipc	a4,0x23
ffffffc050403aaa:	95e70713          	addi	a4,a4,-1698 # ffffffc050426404 <semaphore_id>
ffffffc050403aae:	c314                	sw	a3,0(a4)
ffffffc050403ab0:	a039                	j	ffffffc050403abe <semaphore_get+0x68>
ffffffc050403ab2:	fec42783          	lw	a5,-20(s0)
ffffffc050403ab6:	853e                	mv	a0,a5
ffffffc050403ab8:	d93ff0ef          	jal	ra,ffffffc05040384a <semaphore_fetchhash>
ffffffc050403abc:	87aa                	mv	a5,a0
ffffffc050403abe:	853e                	mv	a0,a5
ffffffc050403ac0:	60e2                	ld	ra,24(sp)
ffffffc050403ac2:	6442                	ld	s0,16(sp)
ffffffc050403ac4:	6105                	addi	sp,sp,32
ffffffc050403ac6:	8082                	ret

ffffffc050403ac8 <semaphore_op>:
ffffffc050403ac8:	1101                	addi	sp,sp,-32
ffffffc050403aca:	ec06                	sd	ra,24(sp)
ffffffc050403acc:	e822                	sd	s0,16(sp)
ffffffc050403ace:	1000                	addi	s0,sp,32
ffffffc050403ad0:	87aa                	mv	a5,a0
ffffffc050403ad2:	872e                	mv	a4,a1
ffffffc050403ad4:	fef42623          	sw	a5,-20(s0)
ffffffc050403ad8:	87ba                	mv	a5,a4
ffffffc050403ada:	fef42423          	sw	a5,-24(s0)
ffffffc050403ade:	fe842783          	lw	a5,-24(s0)
ffffffc050403ae2:	0007871b          	sext.w	a4,a5
ffffffc050403ae6:	4785                	li	a5,1
ffffffc050403ae8:	00f71f63          	bne	a4,a5,ffffffc050403b06 <semaphore_op+0x3e>
ffffffc050403aec:	fec42783          	lw	a5,-20(s0)
ffffffc050403af0:	00579713          	slli	a4,a5,0x5
ffffffc050403af4:	00024797          	auipc	a5,0x24
ffffffc050403af8:	b1478793          	addi	a5,a5,-1260 # ffffffc050427608 <semaphore>
ffffffc050403afc:	97ba                	add	a5,a5,a4
ffffffc050403afe:	853e                	mv	a0,a5
ffffffc050403b00:	e7dff0ef          	jal	ra,ffffffc05040397c <do_semaphore_down>
ffffffc050403b04:	a0a9                	j	ffffffc050403b4e <semaphore_op+0x86>
ffffffc050403b06:	fe842783          	lw	a5,-24(s0)
ffffffc050403b0a:	2781                	sext.w	a5,a5
ffffffc050403b0c:	ef91                	bnez	a5,ffffffc050403b28 <semaphore_op+0x60>
ffffffc050403b0e:	fec42783          	lw	a5,-20(s0)
ffffffc050403b12:	00579713          	slli	a4,a5,0x5
ffffffc050403b16:	00024797          	auipc	a5,0x24
ffffffc050403b1a:	af278793          	addi	a5,a5,-1294 # ffffffc050427608 <semaphore>
ffffffc050403b1e:	97ba                	add	a5,a5,a4
ffffffc050403b20:	853e                	mv	a0,a5
ffffffc050403b22:	e0fff0ef          	jal	ra,ffffffc050403930 <do_semaphore_up>
ffffffc050403b26:	a025                	j	ffffffc050403b4e <semaphore_op+0x86>
ffffffc050403b28:	fe842783          	lw	a5,-24(s0)
ffffffc050403b2c:	0007871b          	sext.w	a4,a5
ffffffc050403b30:	4789                	li	a5,2
ffffffc050403b32:	00f71e63          	bne	a4,a5,ffffffc050403b4e <semaphore_op+0x86>
ffffffc050403b36:	fec42783          	lw	a5,-20(s0)
ffffffc050403b3a:	00579713          	slli	a4,a5,0x5
ffffffc050403b3e:	00024797          	auipc	a5,0x24
ffffffc050403b42:	aca78793          	addi	a5,a5,-1334 # ffffffc050427608 <semaphore>
ffffffc050403b46:	97ba                	add	a5,a5,a4
ffffffc050403b48:	853e                	mv	a0,a5
ffffffc050403b4a:	e81ff0ef          	jal	ra,ffffffc0504039ca <do_semaphore_destroy>
ffffffc050403b4e:	0001                	nop
ffffffc050403b50:	60e2                	ld	ra,24(sp)
ffffffc050403b52:	6442                	ld	s0,16(sp)
ffffffc050403b54:	6105                	addi	sp,sp,32
ffffffc050403b56:	8082                	ret

ffffffc050403b58 <do_barrier_init>:
ffffffc050403b58:	1101                	addi	sp,sp,-32
ffffffc050403b5a:	ec06                	sd	ra,24(sp)
ffffffc050403b5c:	e822                	sd	s0,16(sp)
ffffffc050403b5e:	1000                	addi	s0,sp,32
ffffffc050403b60:	fea43423          	sd	a0,-24(s0)
ffffffc050403b64:	87ae                	mv	a5,a1
ffffffc050403b66:	fef42223          	sw	a5,-28(s0)
ffffffc050403b6a:	fe843783          	ld	a5,-24(s0)
ffffffc050403b6e:	fe442703          	lw	a4,-28(s0)
ffffffc050403b72:	c398                	sw	a4,0(a5)
ffffffc050403b74:	fe843783          	ld	a5,-24(s0)
ffffffc050403b78:	0007a223          	sw	zero,4(a5)
ffffffc050403b7c:	fe843783          	ld	a5,-24(s0)
ffffffc050403b80:	0007ac23          	sw	zero,24(a5)
ffffffc050403b84:	fe843783          	ld	a5,-24(s0)
ffffffc050403b88:	07a1                	addi	a5,a5,8
ffffffc050403b8a:	853e                	mv	a0,a5
ffffffc050403b8c:	fc0fe0ef          	jal	ra,ffffffc05040234c <list_init>
ffffffc050403b90:	0001                	nop
ffffffc050403b92:	60e2                	ld	ra,24(sp)
ffffffc050403b94:	6442                	ld	s0,16(sp)
ffffffc050403b96:	6105                	addi	sp,sp,32
ffffffc050403b98:	8082                	ret

ffffffc050403b9a <do_barrier_wait>:
ffffffc050403b9a:	1101                	addi	sp,sp,-32
ffffffc050403b9c:	ec06                	sd	ra,24(sp)
ffffffc050403b9e:	e822                	sd	s0,16(sp)
ffffffc050403ba0:	1000                	addi	s0,sp,32
ffffffc050403ba2:	fea43423          	sd	a0,-24(s0)
ffffffc050403ba6:	fe843783          	ld	a5,-24(s0)
ffffffc050403baa:	43dc                	lw	a5,4(a5)
ffffffc050403bac:	2785                	addiw	a5,a5,1
ffffffc050403bae:	0007871b          	sext.w	a4,a5
ffffffc050403bb2:	fe843783          	ld	a5,-24(s0)
ffffffc050403bb6:	c3d8                	sw	a4,4(a5)
ffffffc050403bb8:	fe843783          	ld	a5,-24(s0)
ffffffc050403bbc:	43d8                	lw	a4,4(a5)
ffffffc050403bbe:	fe843783          	ld	a5,-24(s0)
ffffffc050403bc2:	439c                	lw	a5,0(a5)
ffffffc050403bc4:	02f71a63          	bne	a4,a5,ffffffc050403bf8 <do_barrier_wait+0x5e>
ffffffc050403bc8:	a819                	j	ffffffc050403bde <do_barrier_wait+0x44>
ffffffc050403bca:	fe843783          	ld	a5,-24(s0)
ffffffc050403bce:	07a1                	addi	a5,a5,8
ffffffc050403bd0:	853e                	mv	a0,a5
ffffffc050403bd2:	809fe0ef          	jal	ra,ffffffc0504023da <dequeue>
ffffffc050403bd6:	87aa                	mv	a5,a0
ffffffc050403bd8:	853e                	mv	a0,a5
ffffffc050403bda:	974fe0ef          	jal	ra,ffffffc050401d4e <do_unblock>
ffffffc050403bde:	fe843783          	ld	a5,-24(s0)
ffffffc050403be2:	07a1                	addi	a5,a5,8
ffffffc050403be4:	853e                	mv	a0,a5
ffffffc050403be6:	f8cfe0ef          	jal	ra,ffffffc050402372 <is_list_empty>
ffffffc050403bea:	87aa                	mv	a5,a0
ffffffc050403bec:	dff9                	beqz	a5,ffffffc050403bca <do_barrier_wait+0x30>
ffffffc050403bee:	fe843783          	ld	a5,-24(s0)
ffffffc050403bf2:	0007a223          	sw	zero,4(a5)
ffffffc050403bf6:	a839                	j	ffffffc050403c14 <do_barrier_wait+0x7a>
ffffffc050403bf8:	00023797          	auipc	a5,0x23
ffffffc050403bfc:	90878793          	addi	a5,a5,-1784 # ffffffc050426500 <current_running>
ffffffc050403c00:	639c                	ld	a5,0(a5)
ffffffc050403c02:	02878713          	addi	a4,a5,40
ffffffc050403c06:	fe843783          	ld	a5,-24(s0)
ffffffc050403c0a:	07a1                	addi	a5,a5,8
ffffffc050403c0c:	85be                	mv	a1,a5
ffffffc050403c0e:	853a                	mv	a0,a4
ffffffc050403c10:	906fe0ef          	jal	ra,ffffffc050401d16 <do_block>
ffffffc050403c14:	0001                	nop
ffffffc050403c16:	60e2                	ld	ra,24(sp)
ffffffc050403c18:	6442                	ld	s0,16(sp)
ffffffc050403c1a:	6105                	addi	sp,sp,32
ffffffc050403c1c:	8082                	ret

ffffffc050403c1e <do_barrier_destroy>:
ffffffc050403c1e:	1101                	addi	sp,sp,-32
ffffffc050403c20:	ec06                	sd	ra,24(sp)
ffffffc050403c22:	e822                	sd	s0,16(sp)
ffffffc050403c24:	1000                	addi	s0,sp,32
ffffffc050403c26:	fea43423          	sd	a0,-24(s0)
ffffffc050403c2a:	fe843783          	ld	a5,-24(s0)
ffffffc050403c2e:	0007a023          	sw	zero,0(a5)
ffffffc050403c32:	fe843783          	ld	a5,-24(s0)
ffffffc050403c36:	0007a223          	sw	zero,4(a5)
ffffffc050403c3a:	fe843783          	ld	a5,-24(s0)
ffffffc050403c3e:	4705                	li	a4,1
ffffffc050403c40:	cf98                	sw	a4,24(a5)
ffffffc050403c42:	a819                	j	ffffffc050403c58 <do_barrier_destroy+0x3a>
ffffffc050403c44:	fe843783          	ld	a5,-24(s0)
ffffffc050403c48:	07a1                	addi	a5,a5,8
ffffffc050403c4a:	853e                	mv	a0,a5
ffffffc050403c4c:	f8efe0ef          	jal	ra,ffffffc0504023da <dequeue>
ffffffc050403c50:	87aa                	mv	a5,a0
ffffffc050403c52:	853e                	mv	a0,a5
ffffffc050403c54:	8fafe0ef          	jal	ra,ffffffc050401d4e <do_unblock>
ffffffc050403c58:	fe843783          	ld	a5,-24(s0)
ffffffc050403c5c:	07a1                	addi	a5,a5,8
ffffffc050403c5e:	853e                	mv	a0,a5
ffffffc050403c60:	f12fe0ef          	jal	ra,ffffffc050402372 <is_list_empty>
ffffffc050403c64:	87aa                	mv	a5,a0
ffffffc050403c66:	dff9                	beqz	a5,ffffffc050403c44 <do_barrier_destroy+0x26>
ffffffc050403c68:	0001                	nop
ffffffc050403c6a:	0001                	nop
ffffffc050403c6c:	60e2                	ld	ra,24(sp)
ffffffc050403c6e:	6442                	ld	s0,16(sp)
ffffffc050403c70:	6105                	addi	sp,sp,32
ffffffc050403c72:	8082                	ret

ffffffc050403c74 <barrier_init>:
ffffffc050403c74:	1101                	addi	sp,sp,-32
ffffffc050403c76:	ec06                	sd	ra,24(sp)
ffffffc050403c78:	e822                	sd	s0,16(sp)
ffffffc050403c7a:	1000                	addi	s0,sp,32
ffffffc050403c7c:	87aa                	mv	a5,a0
ffffffc050403c7e:	872e                	mv	a4,a1
ffffffc050403c80:	fef42623          	sw	a5,-20(s0)
ffffffc050403c84:	87ba                	mv	a5,a4
ffffffc050403c86:	fef42423          	sw	a5,-24(s0)
ffffffc050403c8a:	fec42783          	lw	a5,-20(s0)
ffffffc050403c8e:	00579713          	slli	a4,a5,0x5
ffffffc050403c92:	00024797          	auipc	a5,0x24
ffffffc050403c96:	3f678793          	addi	a5,a5,1014 # ffffffc050428088 <barrier>
ffffffc050403c9a:	97ba                	add	a5,a5,a4
ffffffc050403c9c:	fe842703          	lw	a4,-24(s0)
ffffffc050403ca0:	85ba                	mv	a1,a4
ffffffc050403ca2:	853e                	mv	a0,a5
ffffffc050403ca4:	eb5ff0ef          	jal	ra,ffffffc050403b58 <do_barrier_init>
ffffffc050403ca8:	0001                	nop
ffffffc050403caa:	60e2                	ld	ra,24(sp)
ffffffc050403cac:	6442                	ld	s0,16(sp)
ffffffc050403cae:	6105                	addi	sp,sp,32
ffffffc050403cb0:	8082                	ret

ffffffc050403cb2 <barrier_get>:
ffffffc050403cb2:	1101                	addi	sp,sp,-32
ffffffc050403cb4:	ec06                	sd	ra,24(sp)
ffffffc050403cb6:	e822                	sd	s0,16(sp)
ffffffc050403cb8:	1000                	addi	s0,sp,32
ffffffc050403cba:	87aa                	mv	a5,a0
ffffffc050403cbc:	fef42623          	sw	a5,-20(s0)
ffffffc050403cc0:	fec42783          	lw	a5,-20(s0)
ffffffc050403cc4:	853e                	mv	a0,a5
ffffffc050403cc6:	bdbff0ef          	jal	ra,ffffffc0504038a0 <barrier_fetchhash>
ffffffc050403cca:	87aa                	mv	a5,a0
ffffffc050403ccc:	873e                	mv	a4,a5
ffffffc050403cce:	57fd                	li	a5,-1
ffffffc050403cd0:	02f71f63          	bne	a4,a5,ffffffc050403d0e <barrier_get+0x5c>
ffffffc050403cd4:	00022797          	auipc	a5,0x22
ffffffc050403cd8:	73478793          	addi	a5,a5,1844 # ffffffc050426408 <barrier_id>
ffffffc050403cdc:	439c                	lw	a5,0(a5)
ffffffc050403cde:	00024717          	auipc	a4,0x24
ffffffc050403ce2:	5aa70713          	addi	a4,a4,1450 # ffffffc050428288 <barrier_hash>
ffffffc050403ce6:	078a                	slli	a5,a5,0x2
ffffffc050403ce8:	97ba                	add	a5,a5,a4
ffffffc050403cea:	fec42703          	lw	a4,-20(s0)
ffffffc050403cee:	c398                	sw	a4,0(a5)
ffffffc050403cf0:	00022797          	auipc	a5,0x22
ffffffc050403cf4:	71878793          	addi	a5,a5,1816 # ffffffc050426408 <barrier_id>
ffffffc050403cf8:	439c                	lw	a5,0(a5)
ffffffc050403cfa:	0017871b          	addiw	a4,a5,1
ffffffc050403cfe:	0007069b          	sext.w	a3,a4
ffffffc050403d02:	00022717          	auipc	a4,0x22
ffffffc050403d06:	70670713          	addi	a4,a4,1798 # ffffffc050426408 <barrier_id>
ffffffc050403d0a:	c314                	sw	a3,0(a4)
ffffffc050403d0c:	a039                	j	ffffffc050403d1a <barrier_get+0x68>
ffffffc050403d0e:	fec42783          	lw	a5,-20(s0)
ffffffc050403d12:	853e                	mv	a0,a5
ffffffc050403d14:	b8dff0ef          	jal	ra,ffffffc0504038a0 <barrier_fetchhash>
ffffffc050403d18:	87aa                	mv	a5,a0
ffffffc050403d1a:	853e                	mv	a0,a5
ffffffc050403d1c:	60e2                	ld	ra,24(sp)
ffffffc050403d1e:	6442                	ld	s0,16(sp)
ffffffc050403d20:	6105                	addi	sp,sp,32
ffffffc050403d22:	8082                	ret

ffffffc050403d24 <barrier_op>:
ffffffc050403d24:	1101                	addi	sp,sp,-32
ffffffc050403d26:	ec06                	sd	ra,24(sp)
ffffffc050403d28:	e822                	sd	s0,16(sp)
ffffffc050403d2a:	1000                	addi	s0,sp,32
ffffffc050403d2c:	87aa                	mv	a5,a0
ffffffc050403d2e:	872e                	mv	a4,a1
ffffffc050403d30:	fef42623          	sw	a5,-20(s0)
ffffffc050403d34:	87ba                	mv	a5,a4
ffffffc050403d36:	fef42423          	sw	a5,-24(s0)
ffffffc050403d3a:	fe842783          	lw	a5,-24(s0)
ffffffc050403d3e:	2781                	sext.w	a5,a5
ffffffc050403d40:	ef91                	bnez	a5,ffffffc050403d5c <barrier_op+0x38>
ffffffc050403d42:	fec42783          	lw	a5,-20(s0)
ffffffc050403d46:	00579713          	slli	a4,a5,0x5
ffffffc050403d4a:	00024797          	auipc	a5,0x24
ffffffc050403d4e:	33e78793          	addi	a5,a5,830 # ffffffc050428088 <barrier>
ffffffc050403d52:	97ba                	add	a5,a5,a4
ffffffc050403d54:	853e                	mv	a0,a5
ffffffc050403d56:	e45ff0ef          	jal	ra,ffffffc050403b9a <do_barrier_wait>
ffffffc050403d5a:	a025                	j	ffffffc050403d82 <barrier_op+0x5e>
ffffffc050403d5c:	fe842783          	lw	a5,-24(s0)
ffffffc050403d60:	0007871b          	sext.w	a4,a5
ffffffc050403d64:	4785                	li	a5,1
ffffffc050403d66:	00f71e63          	bne	a4,a5,ffffffc050403d82 <barrier_op+0x5e>
ffffffc050403d6a:	fec42783          	lw	a5,-20(s0)
ffffffc050403d6e:	00579713          	slli	a4,a5,0x5
ffffffc050403d72:	00024797          	auipc	a5,0x24
ffffffc050403d76:	31678793          	addi	a5,a5,790 # ffffffc050428088 <barrier>
ffffffc050403d7a:	97ba                	add	a5,a5,a4
ffffffc050403d7c:	853e                	mv	a0,a5
ffffffc050403d7e:	ea1ff0ef          	jal	ra,ffffffc050403c1e <do_barrier_destroy>
ffffffc050403d82:	0001                	nop
ffffffc050403d84:	60e2                	ld	ra,24(sp)
ffffffc050403d86:	6442                	ld	s0,16(sp)
ffffffc050403d88:	6105                	addi	sp,sp,32
ffffffc050403d8a:	8082                	ret

ffffffc050403d8c <do_mbox_open>:
ffffffc050403d8c:	7179                	addi	sp,sp,-48
ffffffc050403d8e:	f406                	sd	ra,40(sp)
ffffffc050403d90:	f022                	sd	s0,32(sp)
ffffffc050403d92:	1800                	addi	s0,sp,48
ffffffc050403d94:	fca43c23          	sd	a0,-40(s0)
ffffffc050403d98:	fe042623          	sw	zero,-20(s0)
ffffffc050403d9c:	a881                	j	ffffffc050403dec <do_mbox_open+0x60>
ffffffc050403d9e:	fec42703          	lw	a4,-20(s0)
ffffffc050403da2:	87ba                	mv	a5,a4
ffffffc050403da4:	0792                	slli	a5,a5,0x4
ffffffc050403da6:	97ba                	add	a5,a5,a4
ffffffc050403da8:	078e                	slli	a5,a5,0x3
ffffffc050403daa:	00024717          	auipc	a4,0x24
ffffffc050403dae:	a5e70713          	addi	a4,a4,-1442 # ffffffc050427808 <mbox>
ffffffc050403db2:	97ba                	add	a5,a5,a4
ffffffc050403db4:	85be                	mv	a1,a5
ffffffc050403db6:	fd843503          	ld	a0,-40(s0)
ffffffc050403dba:	cf7fe0ef          	jal	ra,ffffffc050402ab0 <kstrcmp>
ffffffc050403dbe:	87aa                	mv	a5,a0
ffffffc050403dc0:	e38d                	bnez	a5,ffffffc050403de2 <do_mbox_open+0x56>
ffffffc050403dc2:	00024697          	auipc	a3,0x24
ffffffc050403dc6:	a4668693          	addi	a3,a3,-1466 # ffffffc050427808 <mbox>
ffffffc050403dca:	fec42703          	lw	a4,-20(s0)
ffffffc050403dce:	87ba                	mv	a5,a4
ffffffc050403dd0:	0792                	slli	a5,a5,0x4
ffffffc050403dd2:	97ba                	add	a5,a5,a4
ffffffc050403dd4:	078e                	slli	a5,a5,0x3
ffffffc050403dd6:	97b6                	add	a5,a5,a3
ffffffc050403dd8:	53bc                	lw	a5,96(a5)
ffffffc050403dda:	c781                	beqz	a5,ffffffc050403de2 <do_mbox_open+0x56>
ffffffc050403ddc:	fec42783          	lw	a5,-20(s0)
ffffffc050403de0:	a291                	j	ffffffc050403f24 <do_mbox_open+0x198>
ffffffc050403de2:	fec42783          	lw	a5,-20(s0)
ffffffc050403de6:	2785                	addiw	a5,a5,1
ffffffc050403de8:	fef42623          	sw	a5,-20(s0)
ffffffc050403dec:	fec42783          	lw	a5,-20(s0)
ffffffc050403df0:	0007871b          	sext.w	a4,a5
ffffffc050403df4:	47bd                	li	a5,15
ffffffc050403df6:	fae7d4e3          	bge	a5,a4,ffffffc050403d9e <do_mbox_open+0x12>
ffffffc050403dfa:	00022797          	auipc	a5,0x22
ffffffc050403dfe:	61278793          	addi	a5,a5,1554 # ffffffc05042640c <mbox_id>
ffffffc050403e02:	439c                	lw	a5,0(a5)
ffffffc050403e04:	2785                	addiw	a5,a5,1
ffffffc050403e06:	0007871b          	sext.w	a4,a5
ffffffc050403e0a:	00022797          	auipc	a5,0x22
ffffffc050403e0e:	60278793          	addi	a5,a5,1538 # ffffffc05042640c <mbox_id>
ffffffc050403e12:	c398                	sw	a4,0(a5)
ffffffc050403e14:	00022797          	auipc	a5,0x22
ffffffc050403e18:	5f878793          	addi	a5,a5,1528 # ffffffc05042640c <mbox_id>
ffffffc050403e1c:	4398                	lw	a4,0(a5)
ffffffc050403e1e:	00024697          	auipc	a3,0x24
ffffffc050403e22:	9ea68693          	addi	a3,a3,-1558 # ffffffc050427808 <mbox>
ffffffc050403e26:	87ba                	mv	a5,a4
ffffffc050403e28:	0792                	slli	a5,a5,0x4
ffffffc050403e2a:	97ba                	add	a5,a5,a4
ffffffc050403e2c:	078e                	slli	a5,a5,0x3
ffffffc050403e2e:	97b6                	add	a5,a5,a3
ffffffc050403e30:	4705                	li	a4,1
ffffffc050403e32:	d3b8                	sw	a4,96(a5)
ffffffc050403e34:	00022797          	auipc	a5,0x22
ffffffc050403e38:	5d878793          	addi	a5,a5,1496 # ffffffc05042640c <mbox_id>
ffffffc050403e3c:	4398                	lw	a4,0(a5)
ffffffc050403e3e:	00024697          	auipc	a3,0x24
ffffffc050403e42:	9ca68693          	addi	a3,a3,-1590 # ffffffc050427808 <mbox>
ffffffc050403e46:	87ba                	mv	a5,a4
ffffffc050403e48:	0792                	slli	a5,a5,0x4
ffffffc050403e4a:	97ba                	add	a5,a5,a4
ffffffc050403e4c:	078e                	slli	a5,a5,0x3
ffffffc050403e4e:	97b6                	add	a5,a5,a3
ffffffc050403e50:	0407ae23          	sw	zero,92(a5)
ffffffc050403e54:	00022797          	auipc	a5,0x22
ffffffc050403e58:	5b878793          	addi	a5,a5,1464 # ffffffc05042640c <mbox_id>
ffffffc050403e5c:	4398                	lw	a4,0(a5)
ffffffc050403e5e:	87ba                	mv	a5,a4
ffffffc050403e60:	0792                	slli	a5,a5,0x4
ffffffc050403e62:	97ba                	add	a5,a5,a4
ffffffc050403e64:	078e                	slli	a5,a5,0x3
ffffffc050403e66:	07078713          	addi	a4,a5,112
ffffffc050403e6a:	00024797          	auipc	a5,0x24
ffffffc050403e6e:	99e78793          	addi	a5,a5,-1634 # ffffffc050427808 <mbox>
ffffffc050403e72:	97ba                	add	a5,a5,a4
ffffffc050403e74:	07a1                	addi	a5,a5,8
ffffffc050403e76:	853e                	mv	a0,a5
ffffffc050403e78:	cd4fe0ef          	jal	ra,ffffffc05040234c <list_init>
ffffffc050403e7c:	00022797          	auipc	a5,0x22
ffffffc050403e80:	59078793          	addi	a5,a5,1424 # ffffffc05042640c <mbox_id>
ffffffc050403e84:	4398                	lw	a4,0(a5)
ffffffc050403e86:	87ba                	mv	a5,a4
ffffffc050403e88:	0792                	slli	a5,a5,0x4
ffffffc050403e8a:	97ba                	add	a5,a5,a4
ffffffc050403e8c:	078e                	slli	a5,a5,0x3
ffffffc050403e8e:	06078713          	addi	a4,a5,96
ffffffc050403e92:	00024797          	auipc	a5,0x24
ffffffc050403e96:	97678793          	addi	a5,a5,-1674 # ffffffc050427808 <mbox>
ffffffc050403e9a:	97ba                	add	a5,a5,a4
ffffffc050403e9c:	07a1                	addi	a5,a5,8
ffffffc050403e9e:	853e                	mv	a0,a5
ffffffc050403ea0:	cacfe0ef          	jal	ra,ffffffc05040234c <list_init>
ffffffc050403ea4:	fe042423          	sw	zero,-24(s0)
ffffffc050403ea8:	a089                	j	ffffffc050403eea <do_mbox_open+0x15e>
ffffffc050403eaa:	00022797          	auipc	a5,0x22
ffffffc050403eae:	56278793          	addi	a5,a5,1378 # ffffffc05042640c <mbox_id>
ffffffc050403eb2:	4394                	lw	a3,0(a5)
ffffffc050403eb4:	fe842703          	lw	a4,-24(s0)
ffffffc050403eb8:	0017079b          	addiw	a5,a4,1
ffffffc050403ebc:	fef42423          	sw	a5,-24(s0)
ffffffc050403ec0:	fd843783          	ld	a5,-40(s0)
ffffffc050403ec4:	0007c603          	lbu	a2,0(a5)
ffffffc050403ec8:	00024597          	auipc	a1,0x24
ffffffc050403ecc:	94058593          	addi	a1,a1,-1728 # ffffffc050427808 <mbox>
ffffffc050403ed0:	87b6                	mv	a5,a3
ffffffc050403ed2:	0792                	slli	a5,a5,0x4
ffffffc050403ed4:	97b6                	add	a5,a5,a3
ffffffc050403ed6:	078e                	slli	a5,a5,0x3
ffffffc050403ed8:	97ae                	add	a5,a5,a1
ffffffc050403eda:	97ba                	add	a5,a5,a4
ffffffc050403edc:	00c78023          	sb	a2,0(a5)
ffffffc050403ee0:	fd843783          	ld	a5,-40(s0)
ffffffc050403ee4:	0785                	addi	a5,a5,1
ffffffc050403ee6:	fcf43c23          	sd	a5,-40(s0)
ffffffc050403eea:	fd843783          	ld	a5,-40(s0)
ffffffc050403eee:	0007c783          	lbu	a5,0(a5)
ffffffc050403ef2:	ffc5                	bnez	a5,ffffffc050403eaa <do_mbox_open+0x11e>
ffffffc050403ef4:	00022797          	auipc	a5,0x22
ffffffc050403ef8:	51878793          	addi	a5,a5,1304 # ffffffc05042640c <mbox_id>
ffffffc050403efc:	4398                	lw	a4,0(a5)
ffffffc050403efe:	00024617          	auipc	a2,0x24
ffffffc050403f02:	90a60613          	addi	a2,a2,-1782 # ffffffc050427808 <mbox>
ffffffc050403f06:	fe842683          	lw	a3,-24(s0)
ffffffc050403f0a:	87ba                	mv	a5,a4
ffffffc050403f0c:	0792                	slli	a5,a5,0x4
ffffffc050403f0e:	97ba                	add	a5,a5,a4
ffffffc050403f10:	078e                	slli	a5,a5,0x3
ffffffc050403f12:	97b2                	add	a5,a5,a2
ffffffc050403f14:	97b6                	add	a5,a5,a3
ffffffc050403f16:	00078023          	sb	zero,0(a5)
ffffffc050403f1a:	00022797          	auipc	a5,0x22
ffffffc050403f1e:	4f278793          	addi	a5,a5,1266 # ffffffc05042640c <mbox_id>
ffffffc050403f22:	439c                	lw	a5,0(a5)
ffffffc050403f24:	853e                	mv	a0,a5
ffffffc050403f26:	70a2                	ld	ra,40(sp)
ffffffc050403f28:	7402                	ld	s0,32(sp)
ffffffc050403f2a:	6145                	addi	sp,sp,48
ffffffc050403f2c:	8082                	ret

ffffffc050403f2e <do_mbox_close>:
ffffffc050403f2e:	1101                	addi	sp,sp,-32
ffffffc050403f30:	ec22                	sd	s0,24(sp)
ffffffc050403f32:	1000                	addi	s0,sp,32
ffffffc050403f34:	87aa                	mv	a5,a0
ffffffc050403f36:	fef42623          	sw	a5,-20(s0)
ffffffc050403f3a:	00024697          	auipc	a3,0x24
ffffffc050403f3e:	8ce68693          	addi	a3,a3,-1842 # ffffffc050427808 <mbox>
ffffffc050403f42:	fec42703          	lw	a4,-20(s0)
ffffffc050403f46:	87ba                	mv	a5,a4
ffffffc050403f48:	0792                	slli	a5,a5,0x4
ffffffc050403f4a:	97ba                	add	a5,a5,a4
ffffffc050403f4c:	078e                	slli	a5,a5,0x3
ffffffc050403f4e:	97b6                	add	a5,a5,a3
ffffffc050403f50:	0607a023          	sw	zero,96(a5)
ffffffc050403f54:	0001                	nop
ffffffc050403f56:	6462                	ld	s0,24(sp)
ffffffc050403f58:	6105                	addi	sp,sp,32
ffffffc050403f5a:	8082                	ret

ffffffc050403f5c <do_mbox_send>:
ffffffc050403f5c:	7179                	addi	sp,sp,-48
ffffffc050403f5e:	f406                	sd	ra,40(sp)
ffffffc050403f60:	f022                	sd	s0,32(sp)
ffffffc050403f62:	1800                	addi	s0,sp,48
ffffffc050403f64:	87aa                	mv	a5,a0
ffffffc050403f66:	fcb43823          	sd	a1,-48(s0)
ffffffc050403f6a:	8732                	mv	a4,a2
ffffffc050403f6c:	fcf42e23          	sw	a5,-36(s0)
ffffffc050403f70:	87ba                	mv	a5,a4
ffffffc050403f72:	fcf42c23          	sw	a5,-40(s0)
ffffffc050403f76:	fe042623          	sw	zero,-20(s0)
ffffffc050403f7a:	a82d                	j	ffffffc050403fb4 <do_mbox_send+0x58>
ffffffc050403f7c:	00022797          	auipc	a5,0x22
ffffffc050403f80:	58478793          	addi	a5,a5,1412 # ffffffc050426500 <current_running>
ffffffc050403f84:	639c                	ld	a5,0(a5)
ffffffc050403f86:	02878693          	addi	a3,a5,40
ffffffc050403f8a:	fdc42703          	lw	a4,-36(s0)
ffffffc050403f8e:	87ba                	mv	a5,a4
ffffffc050403f90:	0792                	slli	a5,a5,0x4
ffffffc050403f92:	97ba                	add	a5,a5,a4
ffffffc050403f94:	078e                	slli	a5,a5,0x3
ffffffc050403f96:	07078713          	addi	a4,a5,112
ffffffc050403f9a:	00024797          	auipc	a5,0x24
ffffffc050403f9e:	86e78793          	addi	a5,a5,-1938 # ffffffc050427808 <mbox>
ffffffc050403fa2:	97ba                	add	a5,a5,a4
ffffffc050403fa4:	07a1                	addi	a5,a5,8
ffffffc050403fa6:	85be                	mv	a1,a5
ffffffc050403fa8:	8536                	mv	a0,a3
ffffffc050403faa:	d6dfd0ef          	jal	ra,ffffffc050401d16 <do_block>
ffffffc050403fae:	4785                	li	a5,1
ffffffc050403fb0:	fef42623          	sw	a5,-20(s0)
ffffffc050403fb4:	00024697          	auipc	a3,0x24
ffffffc050403fb8:	85468693          	addi	a3,a3,-1964 # ffffffc050427808 <mbox>
ffffffc050403fbc:	fdc42703          	lw	a4,-36(s0)
ffffffc050403fc0:	87ba                	mv	a5,a4
ffffffc050403fc2:	0792                	slli	a5,a5,0x4
ffffffc050403fc4:	97ba                	add	a5,a5,a4
ffffffc050403fc6:	078e                	slli	a5,a5,0x3
ffffffc050403fc8:	97b6                	add	a5,a5,a3
ffffffc050403fca:	4ffc                	lw	a5,92(a5)
ffffffc050403fcc:	fd842703          	lw	a4,-40(s0)
ffffffc050403fd0:	9fb9                	addw	a5,a5,a4
ffffffc050403fd2:	2781                	sext.w	a5,a5
ffffffc050403fd4:	873e                	mv	a4,a5
ffffffc050403fd6:	04000793          	li	a5,64
ffffffc050403fda:	fae7c1e3          	blt	a5,a4,ffffffc050403f7c <do_mbox_send+0x20>
ffffffc050403fde:	fe042423          	sw	zero,-24(s0)
ffffffc050403fe2:	a885                	j	ffffffc050404052 <do_mbox_send+0xf6>
ffffffc050403fe4:	fe842783          	lw	a5,-24(s0)
ffffffc050403fe8:	fd043703          	ld	a4,-48(s0)
ffffffc050403fec:	00f70633          	add	a2,a4,a5
ffffffc050403ff0:	00024697          	auipc	a3,0x24
ffffffc050403ff4:	81868693          	addi	a3,a3,-2024 # ffffffc050427808 <mbox>
ffffffc050403ff8:	fdc42703          	lw	a4,-36(s0)
ffffffc050403ffc:	87ba                	mv	a5,a4
ffffffc050403ffe:	0792                	slli	a5,a5,0x4
ffffffc050404000:	97ba                	add	a5,a5,a4
ffffffc050404002:	078e                	slli	a5,a5,0x3
ffffffc050404004:	97b6                	add	a5,a5,a3
ffffffc050404006:	4ff8                	lw	a4,92(a5)
ffffffc050404008:	0017079b          	addiw	a5,a4,1
ffffffc05040400c:	0007859b          	sext.w	a1,a5
ffffffc050404010:	00023517          	auipc	a0,0x23
ffffffc050404014:	7f850513          	addi	a0,a0,2040 # ffffffc050427808 <mbox>
ffffffc050404018:	fdc42683          	lw	a3,-36(s0)
ffffffc05040401c:	87b6                	mv	a5,a3
ffffffc05040401e:	0792                	slli	a5,a5,0x4
ffffffc050404020:	97b6                	add	a5,a5,a3
ffffffc050404022:	078e                	slli	a5,a5,0x3
ffffffc050404024:	97aa                	add	a5,a5,a0
ffffffc050404026:	cfec                	sw	a1,92(a5)
ffffffc050404028:	00064603          	lbu	a2,0(a2)
ffffffc05040402c:	00023597          	auipc	a1,0x23
ffffffc050404030:	7dc58593          	addi	a1,a1,2012 # ffffffc050427808 <mbox>
ffffffc050404034:	fdc42683          	lw	a3,-36(s0)
ffffffc050404038:	87b6                	mv	a5,a3
ffffffc05040403a:	0792                	slli	a5,a5,0x4
ffffffc05040403c:	97b6                	add	a5,a5,a3
ffffffc05040403e:	078e                	slli	a5,a5,0x3
ffffffc050404040:	97ae                	add	a5,a5,a1
ffffffc050404042:	97ba                	add	a5,a5,a4
ffffffc050404044:	00c78ca3          	sb	a2,25(a5)
ffffffc050404048:	fe842783          	lw	a5,-24(s0)
ffffffc05040404c:	2785                	addiw	a5,a5,1
ffffffc05040404e:	fef42423          	sw	a5,-24(s0)
ffffffc050404052:	fe842703          	lw	a4,-24(s0)
ffffffc050404056:	fd842783          	lw	a5,-40(s0)
ffffffc05040405a:	2701                	sext.w	a4,a4
ffffffc05040405c:	2781                	sext.w	a5,a5
ffffffc05040405e:	f8f743e3          	blt	a4,a5,ffffffc050403fe4 <do_mbox_send+0x88>
ffffffc050404062:	a035                	j	ffffffc05040408e <do_mbox_send+0x132>
ffffffc050404064:	fdc42703          	lw	a4,-36(s0)
ffffffc050404068:	87ba                	mv	a5,a4
ffffffc05040406a:	0792                	slli	a5,a5,0x4
ffffffc05040406c:	97ba                	add	a5,a5,a4
ffffffc05040406e:	078e                	slli	a5,a5,0x3
ffffffc050404070:	06078713          	addi	a4,a5,96
ffffffc050404074:	00023797          	auipc	a5,0x23
ffffffc050404078:	79478793          	addi	a5,a5,1940 # ffffffc050427808 <mbox>
ffffffc05040407c:	97ba                	add	a5,a5,a4
ffffffc05040407e:	07a1                	addi	a5,a5,8
ffffffc050404080:	853e                	mv	a0,a5
ffffffc050404082:	b58fe0ef          	jal	ra,ffffffc0504023da <dequeue>
ffffffc050404086:	87aa                	mv	a5,a0
ffffffc050404088:	853e                	mv	a0,a5
ffffffc05040408a:	cc5fd0ef          	jal	ra,ffffffc050401d4e <do_unblock>
ffffffc05040408e:	fdc42703          	lw	a4,-36(s0)
ffffffc050404092:	87ba                	mv	a5,a4
ffffffc050404094:	0792                	slli	a5,a5,0x4
ffffffc050404096:	97ba                	add	a5,a5,a4
ffffffc050404098:	078e                	slli	a5,a5,0x3
ffffffc05040409a:	06078713          	addi	a4,a5,96
ffffffc05040409e:	00023797          	auipc	a5,0x23
ffffffc0504040a2:	76a78793          	addi	a5,a5,1898 # ffffffc050427808 <mbox>
ffffffc0504040a6:	97ba                	add	a5,a5,a4
ffffffc0504040a8:	07a1                	addi	a5,a5,8
ffffffc0504040aa:	853e                	mv	a0,a5
ffffffc0504040ac:	ac6fe0ef          	jal	ra,ffffffc050402372 <is_list_empty>
ffffffc0504040b0:	87aa                	mv	a5,a0
ffffffc0504040b2:	dbcd                	beqz	a5,ffffffc050404064 <do_mbox_send+0x108>
ffffffc0504040b4:	fec42783          	lw	a5,-20(s0)
ffffffc0504040b8:	853e                	mv	a0,a5
ffffffc0504040ba:	70a2                	ld	ra,40(sp)
ffffffc0504040bc:	7402                	ld	s0,32(sp)
ffffffc0504040be:	6145                	addi	sp,sp,48
ffffffc0504040c0:	8082                	ret

ffffffc0504040c2 <do_mbox_recv>:
ffffffc0504040c2:	7179                	addi	sp,sp,-48
ffffffc0504040c4:	f406                	sd	ra,40(sp)
ffffffc0504040c6:	f022                	sd	s0,32(sp)
ffffffc0504040c8:	1800                	addi	s0,sp,48
ffffffc0504040ca:	87aa                	mv	a5,a0
ffffffc0504040cc:	fcb43823          	sd	a1,-48(s0)
ffffffc0504040d0:	8732                	mv	a4,a2
ffffffc0504040d2:	fcf42e23          	sw	a5,-36(s0)
ffffffc0504040d6:	87ba                	mv	a5,a4
ffffffc0504040d8:	fcf42c23          	sw	a5,-40(s0)
ffffffc0504040dc:	fe042623          	sw	zero,-20(s0)
ffffffc0504040e0:	a82d                	j	ffffffc05040411a <do_mbox_recv+0x58>
ffffffc0504040e2:	00022797          	auipc	a5,0x22
ffffffc0504040e6:	41e78793          	addi	a5,a5,1054 # ffffffc050426500 <current_running>
ffffffc0504040ea:	639c                	ld	a5,0(a5)
ffffffc0504040ec:	02878693          	addi	a3,a5,40
ffffffc0504040f0:	fdc42703          	lw	a4,-36(s0)
ffffffc0504040f4:	87ba                	mv	a5,a4
ffffffc0504040f6:	0792                	slli	a5,a5,0x4
ffffffc0504040f8:	97ba                	add	a5,a5,a4
ffffffc0504040fa:	078e                	slli	a5,a5,0x3
ffffffc0504040fc:	06078713          	addi	a4,a5,96
ffffffc050404100:	00023797          	auipc	a5,0x23
ffffffc050404104:	70878793          	addi	a5,a5,1800 # ffffffc050427808 <mbox>
ffffffc050404108:	97ba                	add	a5,a5,a4
ffffffc05040410a:	07a1                	addi	a5,a5,8
ffffffc05040410c:	85be                	mv	a1,a5
ffffffc05040410e:	8536                	mv	a0,a3
ffffffc050404110:	c07fd0ef          	jal	ra,ffffffc050401d16 <do_block>
ffffffc050404114:	4785                	li	a5,1
ffffffc050404116:	fef42623          	sw	a5,-20(s0)
ffffffc05040411a:	00023697          	auipc	a3,0x23
ffffffc05040411e:	6ee68693          	addi	a3,a3,1774 # ffffffc050427808 <mbox>
ffffffc050404122:	fdc42703          	lw	a4,-36(s0)
ffffffc050404126:	87ba                	mv	a5,a4
ffffffc050404128:	0792                	slli	a5,a5,0x4
ffffffc05040412a:	97ba                	add	a5,a5,a4
ffffffc05040412c:	078e                	slli	a5,a5,0x3
ffffffc05040412e:	97b6                	add	a5,a5,a3
ffffffc050404130:	4ff8                	lw	a4,92(a5)
ffffffc050404132:	fd842783          	lw	a5,-40(s0)
ffffffc050404136:	40f707bb          	subw	a5,a4,a5
ffffffc05040413a:	2781                	sext.w	a5,a5
ffffffc05040413c:	fa07c3e3          	bltz	a5,ffffffc0504040e2 <do_mbox_recv+0x20>
ffffffc050404140:	fe042423          	sw	zero,-24(s0)
ffffffc050404144:	a835                	j	ffffffc050404180 <do_mbox_recv+0xbe>
ffffffc050404146:	fe842783          	lw	a5,-24(s0)
ffffffc05040414a:	fd043703          	ld	a4,-48(s0)
ffffffc05040414e:	00f706b3          	add	a3,a4,a5
ffffffc050404152:	00023597          	auipc	a1,0x23
ffffffc050404156:	6b658593          	addi	a1,a1,1718 # ffffffc050427808 <mbox>
ffffffc05040415a:	fe842603          	lw	a2,-24(s0)
ffffffc05040415e:	fdc42703          	lw	a4,-36(s0)
ffffffc050404162:	87ba                	mv	a5,a4
ffffffc050404164:	0792                	slli	a5,a5,0x4
ffffffc050404166:	97ba                	add	a5,a5,a4
ffffffc050404168:	078e                	slli	a5,a5,0x3
ffffffc05040416a:	97ae                	add	a5,a5,a1
ffffffc05040416c:	97b2                	add	a5,a5,a2
ffffffc05040416e:	0197c783          	lbu	a5,25(a5)
ffffffc050404172:	00f68023          	sb	a5,0(a3)
ffffffc050404176:	fe842783          	lw	a5,-24(s0)
ffffffc05040417a:	2785                	addiw	a5,a5,1
ffffffc05040417c:	fef42423          	sw	a5,-24(s0)
ffffffc050404180:	fe842703          	lw	a4,-24(s0)
ffffffc050404184:	fd842783          	lw	a5,-40(s0)
ffffffc050404188:	2701                	sext.w	a4,a4
ffffffc05040418a:	2781                	sext.w	a5,a5
ffffffc05040418c:	faf74de3          	blt	a4,a5,ffffffc050404146 <do_mbox_recv+0x84>
ffffffc050404190:	fe042423          	sw	zero,-24(s0)
ffffffc050404194:	a899                	j	ffffffc0504041ea <do_mbox_recv+0x128>
ffffffc050404196:	fe842703          	lw	a4,-24(s0)
ffffffc05040419a:	fd842783          	lw	a5,-40(s0)
ffffffc05040419e:	9fb9                	addw	a5,a5,a4
ffffffc0504041a0:	0007869b          	sext.w	a3,a5
ffffffc0504041a4:	00023617          	auipc	a2,0x23
ffffffc0504041a8:	66460613          	addi	a2,a2,1636 # ffffffc050427808 <mbox>
ffffffc0504041ac:	fdc42703          	lw	a4,-36(s0)
ffffffc0504041b0:	87ba                	mv	a5,a4
ffffffc0504041b2:	0792                	slli	a5,a5,0x4
ffffffc0504041b4:	97ba                	add	a5,a5,a4
ffffffc0504041b6:	078e                	slli	a5,a5,0x3
ffffffc0504041b8:	97b2                	add	a5,a5,a2
ffffffc0504041ba:	97b6                	add	a5,a5,a3
ffffffc0504041bc:	0197c683          	lbu	a3,25(a5)
ffffffc0504041c0:	00023597          	auipc	a1,0x23
ffffffc0504041c4:	64858593          	addi	a1,a1,1608 # ffffffc050427808 <mbox>
ffffffc0504041c8:	fe842603          	lw	a2,-24(s0)
ffffffc0504041cc:	fdc42703          	lw	a4,-36(s0)
ffffffc0504041d0:	87ba                	mv	a5,a4
ffffffc0504041d2:	0792                	slli	a5,a5,0x4
ffffffc0504041d4:	97ba                	add	a5,a5,a4
ffffffc0504041d6:	078e                	slli	a5,a5,0x3
ffffffc0504041d8:	97ae                	add	a5,a5,a1
ffffffc0504041da:	97b2                	add	a5,a5,a2
ffffffc0504041dc:	00d78ca3          	sb	a3,25(a5)
ffffffc0504041e0:	fe842783          	lw	a5,-24(s0)
ffffffc0504041e4:	2785                	addiw	a5,a5,1
ffffffc0504041e6:	fef42423          	sw	a5,-24(s0)
ffffffc0504041ea:	04000713          	li	a4,64
ffffffc0504041ee:	fd842783          	lw	a5,-40(s0)
ffffffc0504041f2:	40f707bb          	subw	a5,a4,a5
ffffffc0504041f6:	0007871b          	sext.w	a4,a5
ffffffc0504041fa:	fe842783          	lw	a5,-24(s0)
ffffffc0504041fe:	2781                	sext.w	a5,a5
ffffffc050404200:	f8e7cbe3          	blt	a5,a4,ffffffc050404196 <do_mbox_recv+0xd4>
ffffffc050404204:	00023697          	auipc	a3,0x23
ffffffc050404208:	60468693          	addi	a3,a3,1540 # ffffffc050427808 <mbox>
ffffffc05040420c:	fdc42703          	lw	a4,-36(s0)
ffffffc050404210:	87ba                	mv	a5,a4
ffffffc050404212:	0792                	slli	a5,a5,0x4
ffffffc050404214:	97ba                	add	a5,a5,a4
ffffffc050404216:	078e                	slli	a5,a5,0x3
ffffffc050404218:	97b6                	add	a5,a5,a3
ffffffc05040421a:	4ff8                	lw	a4,92(a5)
ffffffc05040421c:	fd842783          	lw	a5,-40(s0)
ffffffc050404220:	40f707bb          	subw	a5,a4,a5
ffffffc050404224:	0007869b          	sext.w	a3,a5
ffffffc050404228:	00023617          	auipc	a2,0x23
ffffffc05040422c:	5e060613          	addi	a2,a2,1504 # ffffffc050427808 <mbox>
ffffffc050404230:	fdc42703          	lw	a4,-36(s0)
ffffffc050404234:	87ba                	mv	a5,a4
ffffffc050404236:	0792                	slli	a5,a5,0x4
ffffffc050404238:	97ba                	add	a5,a5,a4
ffffffc05040423a:	078e                	slli	a5,a5,0x3
ffffffc05040423c:	97b2                	add	a5,a5,a2
ffffffc05040423e:	cff4                	sw	a3,92(a5)
ffffffc050404240:	a035                	j	ffffffc05040426c <do_mbox_recv+0x1aa>
ffffffc050404242:	fdc42703          	lw	a4,-36(s0)
ffffffc050404246:	87ba                	mv	a5,a4
ffffffc050404248:	0792                	slli	a5,a5,0x4
ffffffc05040424a:	97ba                	add	a5,a5,a4
ffffffc05040424c:	078e                	slli	a5,a5,0x3
ffffffc05040424e:	07078713          	addi	a4,a5,112
ffffffc050404252:	00023797          	auipc	a5,0x23
ffffffc050404256:	5b678793          	addi	a5,a5,1462 # ffffffc050427808 <mbox>
ffffffc05040425a:	97ba                	add	a5,a5,a4
ffffffc05040425c:	07a1                	addi	a5,a5,8
ffffffc05040425e:	853e                	mv	a0,a5
ffffffc050404260:	97afe0ef          	jal	ra,ffffffc0504023da <dequeue>
ffffffc050404264:	87aa                	mv	a5,a0
ffffffc050404266:	853e                	mv	a0,a5
ffffffc050404268:	ae7fd0ef          	jal	ra,ffffffc050401d4e <do_unblock>
ffffffc05040426c:	fdc42703          	lw	a4,-36(s0)
ffffffc050404270:	87ba                	mv	a5,a4
ffffffc050404272:	0792                	slli	a5,a5,0x4
ffffffc050404274:	97ba                	add	a5,a5,a4
ffffffc050404276:	078e                	slli	a5,a5,0x3
ffffffc050404278:	07078713          	addi	a4,a5,112
ffffffc05040427c:	00023797          	auipc	a5,0x23
ffffffc050404280:	58c78793          	addi	a5,a5,1420 # ffffffc050427808 <mbox>
ffffffc050404284:	97ba                	add	a5,a5,a4
ffffffc050404286:	07a1                	addi	a5,a5,8
ffffffc050404288:	853e                	mv	a0,a5
ffffffc05040428a:	8e8fe0ef          	jal	ra,ffffffc050402372 <is_list_empty>
ffffffc05040428e:	87aa                	mv	a5,a0
ffffffc050404290:	dbcd                	beqz	a5,ffffffc050404242 <do_mbox_recv+0x180>
ffffffc050404292:	fec42783          	lw	a5,-20(s0)
ffffffc050404296:	853e                	mv	a0,a5
ffffffc050404298:	70a2                	ld	ra,40(sp)
ffffffc05040429a:	7402                	ld	s0,32(sp)
ffffffc05040429c:	6145                	addi	sp,sp,48
ffffffc05040429e:	8082                	ret

ffffffc0504042a0 <get_elf_file>:
ffffffc0504042a0:	7139                	addi	sp,sp,-64
ffffffc0504042a2:	fc06                	sd	ra,56(sp)
ffffffc0504042a4:	f822                	sd	s0,48(sp)
ffffffc0504042a6:	0080                	addi	s0,sp,64
ffffffc0504042a8:	fca43c23          	sd	a0,-40(s0)
ffffffc0504042ac:	fcb43823          	sd	a1,-48(s0)
ffffffc0504042b0:	fcc43423          	sd	a2,-56(s0)
ffffffc0504042b4:	fe042623          	sw	zero,-20(s0)
ffffffc0504042b8:	a895                	j	ffffffc05040432c <get_elf_file+0x8c>
ffffffc0504042ba:	00020697          	auipc	a3,0x20
ffffffc0504042be:	9b668693          	addi	a3,a3,-1610 # ffffffc050423c70 <elf_files>
ffffffc0504042c2:	fec42703          	lw	a4,-20(s0)
ffffffc0504042c6:	87ba                	mv	a5,a4
ffffffc0504042c8:	0786                	slli	a5,a5,0x1
ffffffc0504042ca:	97ba                	add	a5,a5,a4
ffffffc0504042cc:	078e                	slli	a5,a5,0x3
ffffffc0504042ce:	97b6                	add	a5,a5,a3
ffffffc0504042d0:	639c                	ld	a5,0(a5)
ffffffc0504042d2:	fd843583          	ld	a1,-40(s0)
ffffffc0504042d6:	853e                	mv	a0,a5
ffffffc0504042d8:	929fe0ef          	jal	ra,ffffffc050402c00 <strcmp>
ffffffc0504042dc:	87aa                	mv	a5,a0
ffffffc0504042de:	e3b1                	bnez	a5,ffffffc050404322 <get_elf_file+0x82>
ffffffc0504042e0:	00020697          	auipc	a3,0x20
ffffffc0504042e4:	99068693          	addi	a3,a3,-1648 # ffffffc050423c70 <elf_files>
ffffffc0504042e8:	fec42703          	lw	a4,-20(s0)
ffffffc0504042ec:	87ba                	mv	a5,a4
ffffffc0504042ee:	0786                	slli	a5,a5,0x1
ffffffc0504042f0:	97ba                	add	a5,a5,a4
ffffffc0504042f2:	078e                	slli	a5,a5,0x3
ffffffc0504042f4:	97b6                	add	a5,a5,a3
ffffffc0504042f6:	6798                	ld	a4,8(a5)
ffffffc0504042f8:	fd043783          	ld	a5,-48(s0)
ffffffc0504042fc:	e398                	sd	a4,0(a5)
ffffffc0504042fe:	00020697          	auipc	a3,0x20
ffffffc050404302:	97268693          	addi	a3,a3,-1678 # ffffffc050423c70 <elf_files>
ffffffc050404306:	fec42703          	lw	a4,-20(s0)
ffffffc05040430a:	87ba                	mv	a5,a4
ffffffc05040430c:	0786                	slli	a5,a5,0x1
ffffffc05040430e:	97ba                	add	a5,a5,a4
ffffffc050404310:	078e                	slli	a5,a5,0x3
ffffffc050404312:	97b6                	add	a5,a5,a3
ffffffc050404314:	6b9c                	ld	a5,16(a5)
ffffffc050404316:	4398                	lw	a4,0(a5)
ffffffc050404318:	fc843783          	ld	a5,-56(s0)
ffffffc05040431c:	c398                	sw	a4,0(a5)
ffffffc05040431e:	4785                	li	a5,1
ffffffc050404320:	a831                	j	ffffffc05040433c <get_elf_file+0x9c>
ffffffc050404322:	fec42783          	lw	a5,-20(s0)
ffffffc050404326:	2785                	addiw	a5,a5,1
ffffffc050404328:	fef42623          	sw	a5,-20(s0)
ffffffc05040432c:	fec42783          	lw	a5,-20(s0)
ffffffc050404330:	0007871b          	sext.w	a4,a5
ffffffc050404334:	4789                	li	a5,2
ffffffc050404336:	f8e7d2e3          	bge	a5,a4,ffffffc0504042ba <get_elf_file+0x1a>
ffffffc05040433a:	4781                	li	a5,0
ffffffc05040433c:	853e                	mv	a0,a5
ffffffc05040433e:	70e2                	ld	ra,56(sp)
ffffffc050404340:	7442                	ld	s0,48(sp)
ffffffc050404342:	6121                	addi	sp,sp,64
ffffffc050404344:	8082                	ret
